SF:D:\Rust\permata-gateway\src\config\mod.rs
FN:71,_RNvMNtCs8c0sLc0b2ph_15webhook_gateway6configNtB2_9AppConfig4load
FN:71,_RNvMNtCsf025XZeElGg_15webhook_gateway6configNtB2_9AppConfig4load
FNDA:8,_RNvMNtCs8c0sLc0b2ph_15webhook_gateway6configNtB2_9AppConfig4load
FNDA:0,_RNvMNtCsf025XZeElGg_15webhook_gateway6configNtB2_9AppConfig4load
FNF:1
FNH:1
DA:71,8
DA:72,8
DA:73,8
DA:74,8
DA:75,8
DA:77,8
DA:78,8
BRF:0
BRH:0
LF:7
LH:7
end_of_record
SF:D:\Rust\permata-gateway\src\handlers\webhook_server.rs
FN:40,_RNvMNtNtCs8c0sLc0b2ph_15webhook_gateway8handlers14webhook_serverNtB2_13WebhookServer14handle_webhook
FN:158,_RNvMNtNtCs8c0sLc0b2ph_15webhook_gateway8handlers14webhook_serverNtB2_13WebhookServer15process_webhook
FN:135,_RNvMNtNtCs8c0sLc0b2ph_15webhook_gateway8handlers14webhook_serverNtB2_13WebhookServer19handle_health_check
FN:81,_RNvMNtNtCs8c0sLc0b2ph_15webhook_gateway8handlers14webhook_serverNtB2_13WebhookServer22should_process_payload
FN:36,_RNvMNtNtCs8c0sLc0b2ph_15webhook_gateway8handlers14webhook_serverNtB2_13WebhookServer3new
FN:252,_RNvXs0_NtNtCs8c0sLc0b2ph_15webhook_gateway8handlers14webhook_serverNtB5_13WebhookServerNtB5_18WebhookServerTrait5start
FN:297,_RNvXs0_NtNtCs8c0sLc0b2ph_15webhook_gateway8handlers14webhook_serverNtB5_13WebhookServerNtB5_18WebhookServerTrait8shutdown
FN:287,_RNCNCNCNCNvXs0_NtNtCs8c0sLc0b2ph_15webhook_gateway8handlers14webhook_serverNtBd_13WebhookServerNtBd_18WebhookServerTrait5start0s0_000Bh_
FN:285,_RNCNCNCNvXs0_NtNtCs8c0sLc0b2ph_15webhook_gateway8handlers14webhook_serverNtBb_13WebhookServerNtBb_18WebhookServerTrait5start0s0_00Bf_
FN:207,_RNCNCNvMNtNtCs8c0sLc0b2ph_15webhook_gateway8handlers14webhook_serverNtB6_13WebhookServer15process_webhook00Ba_
FN:255,_RNCNCNvXs0_NtNtCs8c0sLc0b2ph_15webhook_gateway8handlers14webhook_serverNtB9_13WebhookServerNtB9_18WebhookServerTrait5start00Bd_
FN:284,_RNCNCNvXs0_NtNtCs8c0sLc0b2ph_15webhook_gateway8handlers14webhook_serverNtB9_13WebhookServerNtB9_18WebhookServerTrait5start0s0_0Bd_
FN:259,_RNCNCNvXs0_NtNtCs8c0sLc0b2ph_15webhook_gateway8handlers14webhook_serverNtB9_13WebhookServerNtB9_18WebhookServerTrait5start0s_0Bd_
FN:43,_RNCNvMNtNtCs8c0sLc0b2ph_15webhook_gateway8handlers14webhook_serverNtB4_13WebhookServer14handle_webhook0B8_
FN:162,_RNCNvMNtNtCs8c0sLc0b2ph_15webhook_gateway8handlers14webhook_serverNtB4_13WebhookServer15process_webhook0B8_
FN:138,_RNCNvMNtNtCs8c0sLc0b2ph_15webhook_gateway8handlers14webhook_serverNtB4_13WebhookServer19handle_health_check0B8_
FN:287,_RNCNCNCNCNvXs0_NtNtCsf025XZeElGg_15webhook_gateway8handlers14webhook_serverNtBd_13WebhookServerNtBd_18WebhookServerTrait5start0s0_000Bh_
FN:285,_RNCNCNCNvXs0_NtNtCsf025XZeElGg_15webhook_gateway8handlers14webhook_serverNtBb_13WebhookServerNtBb_18WebhookServerTrait5start0s0_00Bf_
FN:207,_RNCNCNvMNtNtCsf025XZeElGg_15webhook_gateway8handlers14webhook_serverNtB6_13WebhookServer15process_webhook00Ba_
FN:255,_RNCNCNvXs0_NtNtCsf025XZeElGg_15webhook_gateway8handlers14webhook_serverNtB9_13WebhookServerNtB9_18WebhookServerTrait5start00Bd_
FN:284,_RNCNCNvXs0_NtNtCsf025XZeElGg_15webhook_gateway8handlers14webhook_serverNtB9_13WebhookServerNtB9_18WebhookServerTrait5start0s0_0Bd_
FN:259,_RNCNCNvXs0_NtNtCsf025XZeElGg_15webhook_gateway8handlers14webhook_serverNtB9_13WebhookServerNtB9_18WebhookServerTrait5start0s_0Bd_
FN:43,_RNCNvMNtNtCsf025XZeElGg_15webhook_gateway8handlers14webhook_serverNtB4_13WebhookServer14handle_webhook0B8_
FN:162,_RNCNvMNtNtCsf025XZeElGg_15webhook_gateway8handlers14webhook_serverNtB4_13WebhookServer15process_webhook0B8_
FN:138,_RNCNvMNtNtCsf025XZeElGg_15webhook_gateway8handlers14webhook_serverNtB4_13WebhookServer19handle_health_check0B8_
FN:40,_RNvMNtNtCsf025XZeElGg_15webhook_gateway8handlers14webhook_serverNtB2_13WebhookServer14handle_webhook
FN:158,_RNvMNtNtCsf025XZeElGg_15webhook_gateway8handlers14webhook_serverNtB2_13WebhookServer15process_webhook
FN:135,_RNvMNtNtCsf025XZeElGg_15webhook_gateway8handlers14webhook_serverNtB2_13WebhookServer19handle_health_check
FN:81,_RNvMNtNtCsf025XZeElGg_15webhook_gateway8handlers14webhook_serverNtB2_13WebhookServer22should_process_payload
FN:36,_RNvMNtNtCsf025XZeElGg_15webhook_gateway8handlers14webhook_serverNtB2_13WebhookServer3new
FN:252,_RNvXs0_NtNtCsf025XZeElGg_15webhook_gateway8handlers14webhook_serverNtB5_13WebhookServerNtB5_18WebhookServerTrait5start
FN:297,_RNvXs0_NtNtCsf025XZeElGg_15webhook_gateway8handlers14webhook_serverNtB5_13WebhookServerNtB5_18WebhookServerTrait8shutdown
FNDA:0,_RNvMNtNtCs8c0sLc0b2ph_15webhook_gateway8handlers14webhook_serverNtB2_13WebhookServer14handle_webhook
FNDA:0,_RNvMNtNtCs8c0sLc0b2ph_15webhook_gateway8handlers14webhook_serverNtB2_13WebhookServer15process_webhook
FNDA:0,_RNvMNtNtCs8c0sLc0b2ph_15webhook_gateway8handlers14webhook_serverNtB2_13WebhookServer19handle_health_check
FNDA:0,_RNvMNtNtCs8c0sLc0b2ph_15webhook_gateway8handlers14webhook_serverNtB2_13WebhookServer22should_process_payload
FNDA:16,_RNvMNtNtCs8c0sLc0b2ph_15webhook_gateway8handlers14webhook_serverNtB2_13WebhookServer3new
FNDA:0,_RNvXs0_NtNtCs8c0sLc0b2ph_15webhook_gateway8handlers14webhook_serverNtB5_13WebhookServerNtB5_18WebhookServerTrait5start
FNDA:18,_RNvXs0_NtNtCs8c0sLc0b2ph_15webhook_gateway8handlers14webhook_serverNtB5_13WebhookServerNtB5_18WebhookServerTrait8shutdown
FNDA:0,_RNCNCNCNCNvXs0_NtNtCs8c0sLc0b2ph_15webhook_gateway8handlers14webhook_serverNtBd_13WebhookServerNtBd_18WebhookServerTrait5start0s0_000Bh_
FNDA:0,_RNCNCNCNvXs0_NtNtCs8c0sLc0b2ph_15webhook_gateway8handlers14webhook_serverNtBb_13WebhookServerNtBb_18WebhookServerTrait5start0s0_00Bf_
FNDA:0,_RNCNCNvMNtNtCs8c0sLc0b2ph_15webhook_gateway8handlers14webhook_serverNtB6_13WebhookServer15process_webhook00Ba_
FNDA:0,_RNCNCNvXs0_NtNtCs8c0sLc0b2ph_15webhook_gateway8handlers14webhook_serverNtB9_13WebhookServerNtB9_18WebhookServerTrait5start00Bd_
FNDA:0,_RNCNCNvXs0_NtNtCs8c0sLc0b2ph_15webhook_gateway8handlers14webhook_serverNtB9_13WebhookServerNtB9_18WebhookServerTrait5start0s0_0Bd_
FNDA:0,_RNCNCNvXs0_NtNtCs8c0sLc0b2ph_15webhook_gateway8handlers14webhook_serverNtB9_13WebhookServerNtB9_18WebhookServerTrait5start0s_0Bd_
FNDA:0,_RNCNvMNtNtCs8c0sLc0b2ph_15webhook_gateway8handlers14webhook_serverNtB4_13WebhookServer14handle_webhook0B8_
FNDA:0,_RNCNvMNtNtCs8c0sLc0b2ph_15webhook_gateway8handlers14webhook_serverNtB4_13WebhookServer15process_webhook0B8_
FNDA:0,_RNCNvMNtNtCs8c0sLc0b2ph_15webhook_gateway8handlers14webhook_serverNtB4_13WebhookServer19handle_health_check0B8_
FNDA:0,_RNCNCNCNCNvXs0_NtNtCsf025XZeElGg_15webhook_gateway8handlers14webhook_serverNtBd_13WebhookServerNtBd_18WebhookServerTrait5start0s0_000Bh_
FNDA:0,_RNCNCNCNvXs0_NtNtCsf025XZeElGg_15webhook_gateway8handlers14webhook_serverNtBb_13WebhookServerNtBb_18WebhookServerTrait5start0s0_00Bf_
FNDA:0,_RNCNCNvMNtNtCsf025XZeElGg_15webhook_gateway8handlers14webhook_serverNtB6_13WebhookServer15process_webhook00Ba_
FNDA:0,_RNCNCNvXs0_NtNtCsf025XZeElGg_15webhook_gateway8handlers14webhook_serverNtB9_13WebhookServerNtB9_18WebhookServerTrait5start00Bd_
FNDA:0,_RNCNCNvXs0_NtNtCsf025XZeElGg_15webhook_gateway8handlers14webhook_serverNtB9_13WebhookServerNtB9_18WebhookServerTrait5start0s0_0Bd_
FNDA:0,_RNCNCNvXs0_NtNtCsf025XZeElGg_15webhook_gateway8handlers14webhook_serverNtB9_13WebhookServerNtB9_18WebhookServerTrait5start0s_0Bd_
FNDA:0,_RNCNvMNtNtCsf025XZeElGg_15webhook_gateway8handlers14webhook_serverNtB4_13WebhookServer14handle_webhook0B8_
FNDA:0,_RNCNvMNtNtCsf025XZeElGg_15webhook_gateway8handlers14webhook_serverNtB4_13WebhookServer15process_webhook0B8_
FNDA:0,_RNCNvMNtNtCsf025XZeElGg_15webhook_gateway8handlers14webhook_serverNtB4_13WebhookServer19handle_health_check0B8_
FNDA:0,_RNvMNtNtCsf025XZeElGg_15webhook_gateway8handlers14webhook_serverNtB2_13WebhookServer14handle_webhook
FNDA:0,_RNvMNtNtCsf025XZeElGg_15webhook_gateway8handlers14webhook_serverNtB2_13WebhookServer15process_webhook
FNDA:0,_RNvMNtNtCsf025XZeElGg_15webhook_gateway8handlers14webhook_serverNtB2_13WebhookServer19handle_health_check
FNDA:0,_RNvMNtNtCsf025XZeElGg_15webhook_gateway8handlers14webhook_serverNtB2_13WebhookServer22should_process_payload
FNDA:0,_RNvMNtNtCsf025XZeElGg_15webhook_gateway8handlers14webhook_serverNtB2_13WebhookServer3new
FNDA:0,_RNvXs0_NtNtCsf025XZeElGg_15webhook_gateway8handlers14webhook_serverNtB5_13WebhookServerNtB5_18WebhookServerTrait5start
FNDA:0,_RNvXs0_NtNtCsf025XZeElGg_15webhook_gateway8handlers14webhook_serverNtB5_13WebhookServerNtB5_18WebhookServerTrait8shutdown
FNF:16
FNH:2
DA:36,16
DA:37,16
DA:38,16
DA:40,0
DA:41,0
DA:42,0
DA:43,0
DA:44,0
DA:46,0
DA:47,0
DA:48,0
DA:49,0
DA:50,0
DA:51,0
DA:52,0
DA:53,0
DA:54,0
DA:57,0
DA:58,0
DA:59,0
DA:61,0
DA:62,0
DA:65,0
DA:66,0
DA:67,0
DA:68,0
DA:69,0
DA:71,0
DA:72,0
DA:73,0
DA:74,0
DA:78,0
DA:79,0
DA:81,0
DA:82,0
DA:83,0
DA:85,0
DA:86,0
DA:87,0
DA:88,0
DA:89,0
DA:90,0
DA:92,0
DA:93,0
DA:96,0
DA:97,0
DA:98,0
DA:99,0
DA:100,0
DA:101,0
DA:103,0
DA:104,0
DA:106,0
DA:107,0
DA:108,0
DA:109,0
DA:110,0
DA:112,0
DA:114,0
DA:115,0
DA:117,0
DA:118,0
DA:119,0
DA:120,0
DA:124,0
DA:125,0
DA:126,0
DA:127,0
DA:128,0
DA:129,0
DA:130,0
DA:133,0
DA:135,0
DA:136,0
DA:137,0
DA:138,0
DA:139,0
DA:140,0
DA:141,0
DA:142,0
DA:143,0
DA:146,0
DA:147,0
DA:148,0
DA:151,0
DA:152,0
DA:153,0
DA:154,0
DA:155,0
DA:156,0
DA:158,0
DA:159,0
DA:160,0
DA:161,0
DA:162,0
DA:164,0
DA:167,0
DA:168,0
DA:169,0
DA:170,0
DA:171,0
DA:172,0
DA:173,0
DA:175,0
DA:176,0
DA:177,0
DA:178,0
DA:183,0
DA:186,0
DA:187,0
DA:190,0
DA:191,0
DA:192,0
DA:193,0
DA:194,0
DA:195,0
DA:197,0
DA:198,0
DA:199,0
DA:200,0
DA:201,0
DA:202,0
DA:205,0
DA:206,0
DA:207,0
DA:208,0
DA:209,0
DA:213,0
DA:214,0
DA:216,0
DA:217,0
DA:219,0
DA:220,0
DA:221,0
DA:222,0
DA:223,0
DA:226,0
DA:227,0
DA:228,0
DA:229,0
DA:230,0
DA:232,0
DA:233,0
DA:234,0
DA:235,0
DA:236,0
DA:239,0
DA:240,0
DA:241,0
DA:242,0
DA:243,0
DA:244,0
DA:247,0
DA:252,0
DA:255,0
DA:259,0
DA:284,0
DA:285,0
DA:286,0
DA:287,0
DA:288,0
DA:290,0
DA:291,0
DA:292,0
DA:293,0
DA:295,0
DA:297,18
DA:305,18
BRF:0
BRH:0
LF:173
LH:5
end_of_record
SF:D:\Rust\permata-gateway\src\main.rs
FN:38,_RNCNCNvCs6KoF0gSze4z_15webhook_gateway4main00B5_
FN:14,_RNCNvCs6KoF0gSze4z_15webhook_gateway4main0B3_
FN:14,_RNvCs6KoF0gSze4z_15webhook_gateway4main
FN:38,_RNCNCNvCsfmh2Z66AXDD_15webhook_gateway4main00B5_
FN:14,_RNCNvCsfmh2Z66AXDD_15webhook_gateway4main0B3_
FN:14,_RNvCsfmh2Z66AXDD_15webhook_gateway4main
FNDA:0,_RNCNCNvCs6KoF0gSze4z_15webhook_gateway4main00B5_
FNDA:0,_RNCNvCs6KoF0gSze4z_15webhook_gateway4main0B3_
FNDA:0,_RNvCs6KoF0gSze4z_15webhook_gateway4main
FNDA:0,_RNCNCNvCsfmh2Z66AXDD_15webhook_gateway4main00B5_
FNDA:0,_RNCNvCsfmh2Z66AXDD_15webhook_gateway4main0B3_
FNDA:0,_RNvCsfmh2Z66AXDD_15webhook_gateway4main
FNF:3
FNH:0
DA:14,0
DA:15,0
DA:17,0
DA:19,0
DA:21,0
DA:22,0
DA:23,0
DA:25,0
DA:26,0
DA:27,0
DA:28,0
DA:29,0
DA:30,0
DA:31,0
DA:32,0
DA:33,0
DA:36,0
DA:37,0
DA:38,0
DA:39,0
DA:40,0
DA:41,0
DA:42,0
DA:43,0
DA:44,0
DA:45,0
DA:46,0
DA:49,0
DA:50,0
DA:51,0
DA:52,0
DA:53,0
DA:54,0
DA:55,0
DA:56,0
DA:57,0
DA:58,0
DA:59,0
DA:60,0
DA:61,0
DA:62,0
DA:63,0
DA:64,0
DA:68,0
DA:69,0
DA:70,0
DA:71,0
DA:72,0
DA:76,0
DA:77,0
DA:78,0
DA:79,0
DA:80,0
DA:81,0
DA:82,0
DA:85,0
DA:88,0
DA:90,0
DA:91,0
DA:92,0
DA:93,0
DA:94,0
DA:97,0
DA:98,0
BRF:0
BRH:0
LF:66
LH:0
end_of_record
SF:D:\Rust\permata-gateway\src\providers\logging.rs
FN:181,_RNCNvMs0_NtNtCs8c0sLc0b2ph_15webhook_gateway9providers7loggingNtB7_16StructuredLogger11log_warning0Bb_
FN:182,_RNCNvMs0_NtNtCs8c0sLc0b2ph_15webhook_gateway9providers7loggingNtB7_16StructuredLogger11log_warnings_0Bb_
FN:74,_RNCNvMs0_NtNtCs8c0sLc0b2ph_15webhook_gateway9providers7loggingNtB7_16StructuredLogger4init0Bb_
FN:141,_RNCNvMs0_NtNtCs8c0sLc0b2ph_15webhook_gateway9providers7loggingNtB7_16StructuredLogger8log_info0Bb_
FN:142,_RNCNvMs0_NtNtCs8c0sLc0b2ph_15webhook_gateway9providers7loggingNtB7_16StructuredLogger8log_infos_0Bb_
FN:108,_RNCNvMs0_NtNtCs8c0sLc0b2ph_15webhook_gateway9providers7loggingNtB7_16StructuredLogger9log_error0Bb_
FN:109,_RNCNvMs0_NtNtCs8c0sLc0b2ph_15webhook_gateway9providers7loggingNtB7_16StructuredLogger9log_errors_0Bb_
FN:45,_RNCNvXs_NtNtCs8c0sLc0b2ph_15webhook_gateway9providers7loggingNtB6_22ConfigurableFileWriterNtNtNtCs9bzs8o7GlWW_18tracing_subscriber3fmt6writer10MakeWriter11make_writer0Ba_
FN:52,_RNCNvXs_NtNtCs8c0sLc0b2ph_15webhook_gateway9providers7loggingNtB6_22ConfigurableFileWriterNtNtNtCs9bzs8o7GlWW_18tracing_subscriber3fmt6writer10MakeWriter11make_writers_0Ba_
FN:17,_RNvMNtNtCs8c0sLc0b2ph_15webhook_gateway9providers7loggingNtB2_22ConfigurableFileWriter3new
FN:174,_RNvMs0_NtNtCs8c0sLc0b2ph_15webhook_gateway9providers7loggingNtB5_16StructuredLogger11log_warning
FN:63,_RNvMs0_NtNtCs8c0sLc0b2ph_15webhook_gateway9providers7loggingNtB5_16StructuredLogger4init
FN:133,_RNvMs0_NtNtCs8c0sLc0b2ph_15webhook_gateway9providers7loggingNtB5_16StructuredLogger8log_info
FN:101,_RNvMs0_NtNtCs8c0sLc0b2ph_15webhook_gateway9providers7loggingNtB5_16StructuredLogger9log_error
FN:29,_RNvXs_NtNtCs8c0sLc0b2ph_15webhook_gateway9providers7loggingNtB4_22ConfigurableFileWriterNtNtNtCs9bzs8o7GlWW_18tracing_subscriber3fmt6writer10MakeWriter11make_writer
FN:181,_RNCNvMs0_NtNtCsf025XZeElGg_15webhook_gateway9providers7loggingNtB7_16StructuredLogger11log_warning0Bb_
FN:182,_RNCNvMs0_NtNtCsf025XZeElGg_15webhook_gateway9providers7loggingNtB7_16StructuredLogger11log_warnings_0Bb_
FN:74,_RNCNvMs0_NtNtCsf025XZeElGg_15webhook_gateway9providers7loggingNtB7_16StructuredLogger4init0Bb_
FN:141,_RNCNvMs0_NtNtCsf025XZeElGg_15webhook_gateway9providers7loggingNtB7_16StructuredLogger8log_info0Bb_
FN:142,_RNCNvMs0_NtNtCsf025XZeElGg_15webhook_gateway9providers7loggingNtB7_16StructuredLogger8log_infos_0Bb_
FN:108,_RNCNvMs0_NtNtCsf025XZeElGg_15webhook_gateway9providers7loggingNtB7_16StructuredLogger9log_error0Bb_
FN:109,_RNCNvMs0_NtNtCsf025XZeElGg_15webhook_gateway9providers7loggingNtB7_16StructuredLogger9log_errors_0Bb_
FN:45,_RNCNvXs_NtNtCsf025XZeElGg_15webhook_gateway9providers7loggingNtB6_22ConfigurableFileWriterNtNtNtCs9bzs8o7GlWW_18tracing_subscriber3fmt6writer10MakeWriter11make_writer0Ba_
FN:52,_RNCNvXs_NtNtCsf025XZeElGg_15webhook_gateway9providers7loggingNtB6_22ConfigurableFileWriterNtNtNtCs9bzs8o7GlWW_18tracing_subscriber3fmt6writer10MakeWriter11make_writers_0Ba_
FN:17,_RNvMNtNtCsf025XZeElGg_15webhook_gateway9providers7loggingNtB2_22ConfigurableFileWriter3new
FN:174,_RNvMs0_NtNtCsf025XZeElGg_15webhook_gateway9providers7loggingNtB5_16StructuredLogger11log_warning
FN:63,_RNvMs0_NtNtCsf025XZeElGg_15webhook_gateway9providers7loggingNtB5_16StructuredLogger4init
FN:133,_RNvMs0_NtNtCsf025XZeElGg_15webhook_gateway9providers7loggingNtB5_16StructuredLogger8log_info
FN:101,_RNvMs0_NtNtCsf025XZeElGg_15webhook_gateway9providers7loggingNtB5_16StructuredLogger9log_error
FN:29,_RNvXs_NtNtCsf025XZeElGg_15webhook_gateway9providers7loggingNtB4_22ConfigurableFileWriterNtNtNtCs9bzs8o7GlWW_18tracing_subscriber3fmt6writer10MakeWriter11make_writer
FNDA:288,_RNCNvMs0_NtNtCs8c0sLc0b2ph_15webhook_gateway9providers7loggingNtB7_16StructuredLogger11log_warning0Bb_
FNDA:288,_RNCNvMs0_NtNtCs8c0sLc0b2ph_15webhook_gateway9providers7loggingNtB7_16StructuredLogger11log_warnings_0Bb_
FNDA:2,_RNCNvMs0_NtNtCs8c0sLc0b2ph_15webhook_gateway9providers7loggingNtB7_16StructuredLogger4init0Bb_
FNDA:664,_RNCNvMs0_NtNtCs8c0sLc0b2ph_15webhook_gateway9providers7loggingNtB7_16StructuredLogger8log_info0Bb_
FNDA:664,_RNCNvMs0_NtNtCs8c0sLc0b2ph_15webhook_gateway9providers7loggingNtB7_16StructuredLogger8log_infos_0Bb_
FNDA:314,_RNCNvMs0_NtNtCs8c0sLc0b2ph_15webhook_gateway9providers7loggingNtB7_16StructuredLogger9log_error0Bb_
FNDA:314,_RNCNvMs0_NtNtCs8c0sLc0b2ph_15webhook_gateway9providers7loggingNtB7_16StructuredLogger9log_errors_0Bb_
FNDA:0,_RNCNvXs_NtNtCs8c0sLc0b2ph_15webhook_gateway9providers7loggingNtB6_22ConfigurableFileWriterNtNtNtCs9bzs8o7GlWW_18tracing_subscriber3fmt6writer10MakeWriter11make_writer0Ba_
FNDA:0,_RNCNvXs_NtNtCs8c0sLc0b2ph_15webhook_gateway9providers7loggingNtB6_22ConfigurableFileWriterNtNtNtCs9bzs8o7GlWW_18tracing_subscriber3fmt6writer10MakeWriter11make_writers_0Ba_
FNDA:2,_RNvMNtNtCs8c0sLc0b2ph_15webhook_gateway9providers7loggingNtB2_22ConfigurableFileWriter3new
FNDA:288,_RNvMs0_NtNtCs8c0sLc0b2ph_15webhook_gateway9providers7loggingNtB5_16StructuredLogger11log_warning
FNDA:2,_RNvMs0_NtNtCs8c0sLc0b2ph_15webhook_gateway9providers7loggingNtB5_16StructuredLogger4init
FNDA:682,_RNvMs0_NtNtCs8c0sLc0b2ph_15webhook_gateway9providers7loggingNtB5_16StructuredLogger8log_info
FNDA:314,_RNvMs0_NtNtCs8c0sLc0b2ph_15webhook_gateway9providers7loggingNtB5_16StructuredLogger9log_error
FNDA:314,_RNvXs_NtNtCs8c0sLc0b2ph_15webhook_gateway9providers7loggingNtB4_22ConfigurableFileWriterNtNtNtCs9bzs8o7GlWW_18tracing_subscriber3fmt6writer10MakeWriter11make_writer
FNDA:0,_RNCNvMs0_NtNtCsf025XZeElGg_15webhook_gateway9providers7loggingNtB7_16StructuredLogger11log_warning0Bb_
FNDA:0,_RNCNvMs0_NtNtCsf025XZeElGg_15webhook_gateway9providers7loggingNtB7_16StructuredLogger11log_warnings_0Bb_
FNDA:0,_RNCNvMs0_NtNtCsf025XZeElGg_15webhook_gateway9providers7loggingNtB7_16StructuredLogger4init0Bb_
FNDA:0,_RNCNvMs0_NtNtCsf025XZeElGg_15webhook_gateway9providers7loggingNtB7_16StructuredLogger8log_info0Bb_
FNDA:0,_RNCNvMs0_NtNtCsf025XZeElGg_15webhook_gateway9providers7loggingNtB7_16StructuredLogger8log_infos_0Bb_
FNDA:0,_RNCNvMs0_NtNtCsf025XZeElGg_15webhook_gateway9providers7loggingNtB7_16StructuredLogger9log_error0Bb_
FNDA:0,_RNCNvMs0_NtNtCsf025XZeElGg_15webhook_gateway9providers7loggingNtB7_16StructuredLogger9log_errors_0Bb_
FNDA:0,_RNCNvXs_NtNtCsf025XZeElGg_15webhook_gateway9providers7loggingNtB6_22ConfigurableFileWriterNtNtNtCs9bzs8o7GlWW_18tracing_subscriber3fmt6writer10MakeWriter11make_writer0Ba_
FNDA:0,_RNCNvXs_NtNtCsf025XZeElGg_15webhook_gateway9providers7loggingNtB6_22ConfigurableFileWriterNtNtNtCs9bzs8o7GlWW_18tracing_subscriber3fmt6writer10MakeWriter11make_writers_0Ba_
FNDA:0,_RNvMNtNtCsf025XZeElGg_15webhook_gateway9providers7loggingNtB2_22ConfigurableFileWriter3new
FNDA:0,_RNvMs0_NtNtCsf025XZeElGg_15webhook_gateway9providers7loggingNtB5_16StructuredLogger11log_warning
FNDA:0,_RNvMs0_NtNtCsf025XZeElGg_15webhook_gateway9providers7loggingNtB5_16StructuredLogger4init
FNDA:0,_RNvMs0_NtNtCsf025XZeElGg_15webhook_gateway9providers7loggingNtB5_16StructuredLogger8log_info
FNDA:0,_RNvMs0_NtNtCsf025XZeElGg_15webhook_gateway9providers7loggingNtB5_16StructuredLogger9log_error
FNDA:0,_RNvXs_NtNtCsf025XZeElGg_15webhook_gateway9providers7loggingNtB4_22ConfigurableFileWriterNtNtNtCs9bzs8o7GlWW_18tracing_subscriber3fmt6writer10MakeWriter11make_writer
FNF:15
FNH:13
DA:17,2
DA:19,2
DA:20,2
DA:21,2
DA:29,314
DA:30,314
DA:31,314
DA:33,0
DA:36,314
DA:37,314
DA:43,314
DA:44,314
DA:45,314
DA:46,0
DA:48,314
DA:49,314
DA:50,314
DA:51,314
DA:52,314
DA:54,314
DA:55,314
DA:63,2
DA:64,2
DA:65,2
DA:66,0
DA:67,0
DA:68,0
DA:69,0
DA:70,0
DA:74,2
DA:75,2
DA:76,2
DA:77,2
DA:79,2
DA:81,2
DA:84,2
DA:86,2
DA:87,2
DA:88,2
DA:89,2
DA:90,2
DA:91,0
DA:92,0
DA:93,0
DA:94,0
DA:95,0
DA:96,0
DA:98,2
DA:99,2
DA:101,314
DA:102,314
DA:103,314
DA:104,314
DA:105,314
DA:106,314
DA:107,314
DA:108,314
DA:109,314
DA:110,314
DA:112,314
DA:113,314
DA:115,0
DA:118,314
DA:119,314
DA:121,314
DA:122,314
DA:123,314
DA:125,314
DA:126,314
DA:127,314
DA:130,314
DA:131,314
DA:133,682
DA:134,682
DA:135,682
DA:136,682
DA:137,682
DA:138,682
DA:139,682
DA:140,682
DA:141,682
DA:142,682
DA:143,682
DA:145,682
DA:146,664
DA:148,18
DA:151,682
DA:152,682
DA:154,682
DA:155,682
DA:156,682
DA:157,682
DA:158,682
DA:161,682
DA:162,30
DA:163,30
DA:164,90
DA:165,60
DA:166,60
DA:167,0
DA:168,0
DA:169,652
DA:171,682
DA:172,682
DA:174,288
DA:175,288
DA:176,288
DA:177,288
DA:178,288
DA:179,288
DA:180,288
DA:181,288
DA:182,288
DA:183,288
DA:185,288
DA:186,288
DA:188,0
DA:191,288
DA:192,288
DA:194,288
DA:195,288
DA:196,288
DA:197,288
DA:198,288
DA:201,288
DA:202,288
BRF:0
BRH:0
LF:135
LH:116
end_of_record
SF:D:\Rust\permata-gateway\src\services\permata_callbackstatus_client.rs
FN:40,_RNCNvMNtNtCs8c0sLc0b2ph_15webhook_gateway8services29permata_callbackstatus_clientNtB4_27PermataCallbackStatusClient12send_webhook0B8_
FN:187,_RNCNvMNtNtCs8c0sLc0b2ph_15webhook_gateway8services29permata_callbackstatus_clientNtB4_27PermataCallbackStatusClient8shutdown0B8_
FN:40,_RNvMNtNtCs8c0sLc0b2ph_15webhook_gateway8services29permata_callbackstatus_clientNtB2_27PermataCallbackStatusClient12send_webhook
FN:94,_RNvMNtNtCs8c0sLc0b2ph_15webhook_gateway8services29permata_callbackstatus_clientNtB2_27PermataCallbackStatusClient20make_webhook_request
FN:197,_RNvMNtNtCs8c0sLc0b2ph_15webhook_gateway8services29permata_callbackstatus_clientNtB2_27PermataCallbackStatusClient23is_authentication_error
FN:44,_RNvMNtNtCs8c0sLc0b2ph_15webhook_gateway8services29permata_callbackstatus_clientNtB2_27PermataCallbackStatusClient25send_webhook_with_context
FN:25,_RNvMNtNtCs8c0sLc0b2ph_15webhook_gateway8services29permata_callbackstatus_clientNtB2_27PermataCallbackStatusClient3new
FN:187,_RNvMNtNtCs8c0sLc0b2ph_15webhook_gateway8services29permata_callbackstatus_clientNtB2_27PermataCallbackStatusClient8shutdown
FN:100,_RNCNvMNtNtCs8c0sLc0b2ph_15webhook_gateway8services29permata_callbackstatus_clientNtB4_27PermataCallbackStatusClient20make_webhook_request0B8_
FN:44,_RNCNvMNtNtCs8c0sLc0b2ph_15webhook_gateway8services29permata_callbackstatus_clientNtB4_27PermataCallbackStatusClient25send_webhook_with_context0B8_
FN:40,_RNCNvMNtNtCs8c0sLc0b2ph_15webhook_gateway8services29permata_callbackstatus_clientNtB4_27PermataCallbackStatusClient12send_webhook0CsgoC3FCBgbcl_3lib
FN:187,_RNCNvMNtNtCs8c0sLc0b2ph_15webhook_gateway8services29permata_callbackstatus_clientNtB4_27PermataCallbackStatusClient8shutdown0CsgoC3FCBgbcl_3lib
FN:40,_RNCNvMNtNtCs8c0sLc0b2ph_15webhook_gateway8services29permata_callbackstatus_clientNtB4_27PermataCallbackStatusClient12send_webhook0CsbBJszbEvitB_10unit_tests
FN:187,_RNCNvMNtNtCs8c0sLc0b2ph_15webhook_gateway8services29permata_callbackstatus_clientNtB4_27PermataCallbackStatusClient8shutdown0CsbBJszbEvitB_10unit_tests
FN:40,_RNCNvMNtNtCsf025XZeElGg_15webhook_gateway8services29permata_callbackstatus_clientNtB4_27PermataCallbackStatusClient12send_webhook0B8_
FN:100,_RNCNvMNtNtCsf025XZeElGg_15webhook_gateway8services29permata_callbackstatus_clientNtB4_27PermataCallbackStatusClient20make_webhook_request0B8_
FN:44,_RNCNvMNtNtCsf025XZeElGg_15webhook_gateway8services29permata_callbackstatus_clientNtB4_27PermataCallbackStatusClient25send_webhook_with_context0B8_
FN:187,_RNCNvMNtNtCsf025XZeElGg_15webhook_gateway8services29permata_callbackstatus_clientNtB4_27PermataCallbackStatusClient8shutdown0B8_
FN:40,_RNvMNtNtCsf025XZeElGg_15webhook_gateway8services29permata_callbackstatus_clientNtB2_27PermataCallbackStatusClient12send_webhook
FN:94,_RNvMNtNtCsf025XZeElGg_15webhook_gateway8services29permata_callbackstatus_clientNtB2_27PermataCallbackStatusClient20make_webhook_request
FN:197,_RNvMNtNtCsf025XZeElGg_15webhook_gateway8services29permata_callbackstatus_clientNtB2_27PermataCallbackStatusClient23is_authentication_error
FN:44,_RNvMNtNtCsf025XZeElGg_15webhook_gateway8services29permata_callbackstatus_clientNtB2_27PermataCallbackStatusClient25send_webhook_with_context
FN:25,_RNvMNtNtCsf025XZeElGg_15webhook_gateway8services29permata_callbackstatus_clientNtB2_27PermataCallbackStatusClient3new
FN:187,_RNvMNtNtCsf025XZeElGg_15webhook_gateway8services29permata_callbackstatus_clientNtB2_27PermataCallbackStatusClient8shutdown
FN:187,_RNCNvMNtNtCs8c0sLc0b2ph_15webhook_gateway8services29permata_callbackstatus_clientNtB4_27PermataCallbackStatusClient8shutdown0Csfmh2Z66AXDD_15webhook_gateway
FNDA:0,_RNCNvMNtNtCs8c0sLc0b2ph_15webhook_gateway8services29permata_callbackstatus_clientNtB4_27PermataCallbackStatusClient12send_webhook0B8_
FNDA:0,_RNCNvMNtNtCs8c0sLc0b2ph_15webhook_gateway8services29permata_callbackstatus_clientNtB4_27PermataCallbackStatusClient8shutdown0B8_
FNDA:12,_RNvMNtNtCs8c0sLc0b2ph_15webhook_gateway8services29permata_callbackstatus_clientNtB2_27PermataCallbackStatusClient12send_webhook
FNDA:100,_RNvMNtNtCs8c0sLc0b2ph_15webhook_gateway8services29permata_callbackstatus_clientNtB2_27PermataCallbackStatusClient20make_webhook_request
FNDA:92,_RNvMNtNtCs8c0sLc0b2ph_15webhook_gateway8services29permata_callbackstatus_clientNtB2_27PermataCallbackStatusClient23is_authentication_error
FNDA:44,_RNvMNtNtCs8c0sLc0b2ph_15webhook_gateway8services29permata_callbackstatus_clientNtB2_27PermataCallbackStatusClient25send_webhook_with_context
FNDA:52,_RNvMNtNtCs8c0sLc0b2ph_15webhook_gateway8services29permata_callbackstatus_clientNtB2_27PermataCallbackStatusClient3new
FNDA:14,_RNvMNtNtCs8c0sLc0b2ph_15webhook_gateway8services29permata_callbackstatus_clientNtB2_27PermataCallbackStatusClient8shutdown
FNDA:100,_RNCNvMNtNtCs8c0sLc0b2ph_15webhook_gateway8services29permata_callbackstatus_clientNtB4_27PermataCallbackStatusClient20make_webhook_request0B8_
FNDA:44,_RNCNvMNtNtCs8c0sLc0b2ph_15webhook_gateway8services29permata_callbackstatus_clientNtB4_27PermataCallbackStatusClient25send_webhook_with_context0B8_
FNDA:6,_RNCNvMNtNtCs8c0sLc0b2ph_15webhook_gateway8services29permata_callbackstatus_clientNtB4_27PermataCallbackStatusClient12send_webhook0CsgoC3FCBgbcl_3lib
FNDA:7,_RNCNvMNtNtCs8c0sLc0b2ph_15webhook_gateway8services29permata_callbackstatus_clientNtB4_27PermataCallbackStatusClient8shutdown0CsgoC3FCBgbcl_3lib
FNDA:6,_RNCNvMNtNtCs8c0sLc0b2ph_15webhook_gateway8services29permata_callbackstatus_clientNtB4_27PermataCallbackStatusClient12send_webhook0CsbBJszbEvitB_10unit_tests
FNDA:7,_RNCNvMNtNtCs8c0sLc0b2ph_15webhook_gateway8services29permata_callbackstatus_clientNtB4_27PermataCallbackStatusClient8shutdown0CsbBJszbEvitB_10unit_tests
FNDA:0,_RNCNvMNtNtCsf025XZeElGg_15webhook_gateway8services29permata_callbackstatus_clientNtB4_27PermataCallbackStatusClient12send_webhook0B8_
FNDA:0,_RNCNvMNtNtCsf025XZeElGg_15webhook_gateway8services29permata_callbackstatus_clientNtB4_27PermataCallbackStatusClient20make_webhook_request0B8_
FNDA:0,_RNCNvMNtNtCsf025XZeElGg_15webhook_gateway8services29permata_callbackstatus_clientNtB4_27PermataCallbackStatusClient25send_webhook_with_context0B8_
FNDA:0,_RNCNvMNtNtCsf025XZeElGg_15webhook_gateway8services29permata_callbackstatus_clientNtB4_27PermataCallbackStatusClient8shutdown0B8_
FNDA:0,_RNvMNtNtCsf025XZeElGg_15webhook_gateway8services29permata_callbackstatus_clientNtB2_27PermataCallbackStatusClient12send_webhook
FNDA:0,_RNvMNtNtCsf025XZeElGg_15webhook_gateway8services29permata_callbackstatus_clientNtB2_27PermataCallbackStatusClient20make_webhook_request
FNDA:0,_RNvMNtNtCsf025XZeElGg_15webhook_gateway8services29permata_callbackstatus_clientNtB2_27PermataCallbackStatusClient23is_authentication_error
FNDA:0,_RNvMNtNtCsf025XZeElGg_15webhook_gateway8services29permata_callbackstatus_clientNtB2_27PermataCallbackStatusClient25send_webhook_with_context
FNDA:0,_RNvMNtNtCsf025XZeElGg_15webhook_gateway8services29permata_callbackstatus_clientNtB2_27PermataCallbackStatusClient3new
FNDA:0,_RNvMNtNtCsf025XZeElGg_15webhook_gateway8services29permata_callbackstatus_clientNtB2_27PermataCallbackStatusClient8shutdown
FNDA:0,_RNCNvMNtNtCs8c0sLc0b2ph_15webhook_gateway8services29permata_callbackstatus_clientNtB4_27PermataCallbackStatusClient8shutdown0Csfmh2Z66AXDD_15webhook_gateway
FNF:10
FNH:10
DA:25,52
DA:26,52
DA:27,52
DA:28,52
DA:29,52
DA:31,52
DA:33,52
DA:34,52
DA:35,52
DA:36,52
DA:37,52
DA:38,52
DA:40,12
DA:41,12
DA:42,12
DA:44,44
DA:45,44
DA:47,44
DA:49,100
DA:50,100
DA:51,8
DA:52,8
DA:53,8
DA:54,8
DA:55,8
DA:56,8
DA:58,8
DA:60,92
DA:62,92
DA:63,8
DA:64,8
DA:65,8
DA:66,8
DA:68,8
DA:69,84
DA:71,84
DA:72,84
DA:73,56
DA:74,56
DA:75,56
DA:76,56
DA:77,56
DA:79,56
DA:80,28
DA:81,28
DA:82,28
DA:83,28
DA:84,28
DA:85,28
DA:86,28
DA:91,28
DA:92,44
DA:94,100
DA:95,100
DA:96,100
DA:97,100
DA:98,100
DA:99,100
DA:100,100
DA:102,100
DA:105,14
DA:106,14
DA:107,14
DA:108,14
DA:112,14
DA:113,8
DA:114,8
DA:115,8
DA:116,8
DA:117,8
DA:118,0
DA:120,8
DA:121,8
DA:122,8
DA:123,8
DA:124,8
DA:127,8
DA:128,8
DA:129,8
DA:130,8
DA:131,8
DA:132,8
DA:133,8
DA:134,8
DA:135,8
DA:136,8
DA:138,0
DA:139,0
DA:141,0
DA:142,0
DA:143,0
DA:144,0
DA:147,0
DA:149,8
DA:152,8
DA:153,8
DA:156,8
DA:157,6
DA:158,6
DA:159,6
DA:160,6
DA:161,6
DA:162,6
DA:163,6
DA:164,2
DA:166,2
DA:167,2
DA:168,2
DA:169,2
DA:173,2
DA:174,2
DA:175,2
DA:176,2
DA:177,2
DA:178,2
DA:181,8
DA:182,8
DA:183,8
DA:184,8
DA:185,100
DA:187,14
DA:188,14
DA:189,14
DA:190,14
DA:191,14
DA:192,14
DA:194,14
DA:195,14
DA:197,92
DA:198,92
DA:199,8
DA:200,0
DA:202,84
DA:203,84
DA:204,84
DA:205,84
DA:206,84
DA:207,84
DA:208,84
DA:211,92
BRF:0
BRH:0
LF:144
LH:135
end_of_record
SF:D:\Rust\permata-gateway\src\services\permata_login.rs
FN:267,_RNCNvMNtNtCs8c0sLc0b2ph_15webhook_gateway8services13permata_loginNtB4_12LoginHandler8shutdown0B8_
FN:50,_RNCNvMNtNtCs8c0sLc0b2ph_15webhook_gateway8services13permata_loginNtB4_12LoginHandler9get_token0B8_
FN:108,_RNCNCNvMNtNtCs8c0sLc0b2ph_15webhook_gateway8services13permata_loginNtB6_12LoginHandler28start_periodic_token_refresh00Ba_
FN:129,_RNCNvMNtNtCs8c0sLc0b2ph_15webhook_gateway8services13permata_loginNtB4_12LoginHandler18login_with_context0B8_
FN:54,_RNCNvMNtNtCs8c0sLc0b2ph_15webhook_gateway8services13permata_loginNtB4_12LoginHandler22get_token_with_context0B8_
FN:104,_RNCNvMNtNtCs8c0sLc0b2ph_15webhook_gateway8services13permata_loginNtB4_12LoginHandler28start_periodic_token_refresh0B8_
FN:170,_RNCNvMNtNtCs8c0sLc0b2ph_15webhook_gateway8services13permata_loginNtB4_12LoginHandler31make_login_request_with_context0B8_
FN:235,_RNvMNtNtCs8c0sLc0b2ph_15webhook_gateway8services13permata_loginNtB2_12LoginHandler11clear_cache
FN:253,_RNvMNtNtCs8c0sLc0b2ph_15webhook_gateway8services13permata_loginNtB2_12LoginHandler14stop_scheduler
FN:262,_RNvMNtNtCs8c0sLc0b2ph_15webhook_gateway8services13permata_loginNtB2_12LoginHandler18get_scheduler_info
FN:129,_RNvMNtNtCs8c0sLc0b2ph_15webhook_gateway8services13permata_loginNtB2_12LoginHandler18login_with_context
FN:258,_RNvMNtNtCs8c0sLc0b2ph_15webhook_gateway8services13permata_loginNtB2_12LoginHandler19is_scheduler_active
FN:54,_RNvMNtNtCs8c0sLc0b2ph_15webhook_gateway8services13permata_loginNtB2_12LoginHandler22get_token_with_context
FN:239,_RNvMNtNtCs8c0sLc0b2ph_15webhook_gateway8services13permata_loginNtB2_12LoginHandler24clear_cache_with_context
FN:99,_RNvMNtNtCs8c0sLc0b2ph_15webhook_gateway8services13permata_loginNtB2_12LoginHandler28start_periodic_token_refresh
FN:170,_RNvMNtNtCs8c0sLc0b2ph_15webhook_gateway8services13permata_loginNtB2_12LoginHandler31make_login_request_with_context
FN:29,_RNvMNtNtCs8c0sLc0b2ph_15webhook_gateway8services13permata_loginNtB2_12LoginHandler3new
FN:267,_RNvMNtNtCs8c0sLc0b2ph_15webhook_gateway8services13permata_loginNtB2_12LoginHandler8shutdown
FN:50,_RNvMNtNtCs8c0sLc0b2ph_15webhook_gateway8services13permata_loginNtB2_12LoginHandler9get_token
FN:267,_RNCNvMNtNtCs8c0sLc0b2ph_15webhook_gateway8services13permata_loginNtB4_12LoginHandler8shutdown0CsgoC3FCBgbcl_3lib
FN:50,_RNCNvMNtNtCs8c0sLc0b2ph_15webhook_gateway8services13permata_loginNtB4_12LoginHandler9get_token0CsgoC3FCBgbcl_3lib
FN:267,_RNCNvMNtNtCs8c0sLc0b2ph_15webhook_gateway8services13permata_loginNtB4_12LoginHandler8shutdown0CsbBJszbEvitB_10unit_tests
FN:50,_RNCNvMNtNtCs8c0sLc0b2ph_15webhook_gateway8services13permata_loginNtB4_12LoginHandler9get_token0CsbBJszbEvitB_10unit_tests
FN:108,_RNCNCNvMNtNtCsf025XZeElGg_15webhook_gateway8services13permata_loginNtB6_12LoginHandler28start_periodic_token_refresh00Ba_
FN:129,_RNCNvMNtNtCsf025XZeElGg_15webhook_gateway8services13permata_loginNtB4_12LoginHandler18login_with_context0B8_
FN:54,_RNCNvMNtNtCsf025XZeElGg_15webhook_gateway8services13permata_loginNtB4_12LoginHandler22get_token_with_context0B8_
FN:104,_RNCNvMNtNtCsf025XZeElGg_15webhook_gateway8services13permata_loginNtB4_12LoginHandler28start_periodic_token_refresh0B8_
FN:170,_RNCNvMNtNtCsf025XZeElGg_15webhook_gateway8services13permata_loginNtB4_12LoginHandler31make_login_request_with_context0B8_
FN:267,_RNCNvMNtNtCsf025XZeElGg_15webhook_gateway8services13permata_loginNtB4_12LoginHandler8shutdown0B8_
FN:50,_RNCNvMNtNtCsf025XZeElGg_15webhook_gateway8services13permata_loginNtB4_12LoginHandler9get_token0B8_
FN:235,_RNvMNtNtCsf025XZeElGg_15webhook_gateway8services13permata_loginNtB2_12LoginHandler11clear_cache
FN:253,_RNvMNtNtCsf025XZeElGg_15webhook_gateway8services13permata_loginNtB2_12LoginHandler14stop_scheduler
FN:262,_RNvMNtNtCsf025XZeElGg_15webhook_gateway8services13permata_loginNtB2_12LoginHandler18get_scheduler_info
FN:129,_RNvMNtNtCsf025XZeElGg_15webhook_gateway8services13permata_loginNtB2_12LoginHandler18login_with_context
FN:258,_RNvMNtNtCsf025XZeElGg_15webhook_gateway8services13permata_loginNtB2_12LoginHandler19is_scheduler_active
FN:54,_RNvMNtNtCsf025XZeElGg_15webhook_gateway8services13permata_loginNtB2_12LoginHandler22get_token_with_context
FN:239,_RNvMNtNtCsf025XZeElGg_15webhook_gateway8services13permata_loginNtB2_12LoginHandler24clear_cache_with_context
FN:99,_RNvMNtNtCsf025XZeElGg_15webhook_gateway8services13permata_loginNtB2_12LoginHandler28start_periodic_token_refresh
FN:170,_RNvMNtNtCsf025XZeElGg_15webhook_gateway8services13permata_loginNtB2_12LoginHandler31make_login_request_with_context
FN:29,_RNvMNtNtCsf025XZeElGg_15webhook_gateway8services13permata_loginNtB2_12LoginHandler3new
FN:267,_RNvMNtNtCsf025XZeElGg_15webhook_gateway8services13permata_loginNtB2_12LoginHandler8shutdown
FN:50,_RNvMNtNtCsf025XZeElGg_15webhook_gateway8services13permata_loginNtB2_12LoginHandler9get_token
FN:267,_RNCNvMNtNtCs8c0sLc0b2ph_15webhook_gateway8services13permata_loginNtB4_12LoginHandler8shutdown0Csfmh2Z66AXDD_15webhook_gateway
FNDA:0,_RNCNvMNtNtCs8c0sLc0b2ph_15webhook_gateway8services13permata_loginNtB4_12LoginHandler8shutdown0B8_
FNDA:0,_RNCNvMNtNtCs8c0sLc0b2ph_15webhook_gateway8services13permata_loginNtB4_12LoginHandler9get_token0B8_
FNDA:46,_RNCNCNvMNtNtCs8c0sLc0b2ph_15webhook_gateway8services13permata_loginNtB6_12LoginHandler28start_periodic_token_refresh00Ba_
FNDA:152,_RNCNvMNtNtCs8c0sLc0b2ph_15webhook_gateway8services13permata_loginNtB4_12LoginHandler18login_with_context0B8_
FNDA:158,_RNCNvMNtNtCs8c0sLc0b2ph_15webhook_gateway8services13permata_loginNtB4_12LoginHandler22get_token_with_context0B8_
FNDA:46,_RNCNvMNtNtCs8c0sLc0b2ph_15webhook_gateway8services13permata_loginNtB4_12LoginHandler28start_periodic_token_refresh0B8_
FNDA:382,_RNCNvMNtNtCs8c0sLc0b2ph_15webhook_gateway8services13permata_loginNtB4_12LoginHandler31make_login_request_with_context0B8_
FNDA:2,_RNvMNtNtCs8c0sLc0b2ph_15webhook_gateway8services13permata_loginNtB2_12LoginHandler11clear_cache
FNDA:2,_RNvMNtNtCs8c0sLc0b2ph_15webhook_gateway8services13permata_loginNtB2_12LoginHandler14stop_scheduler
FNDA:4,_RNvMNtNtCs8c0sLc0b2ph_15webhook_gateway8services13permata_loginNtB2_12LoginHandler18get_scheduler_info
FNDA:152,_RNvMNtNtCs8c0sLc0b2ph_15webhook_gateway8services13permata_loginNtB2_12LoginHandler18login_with_context
FNDA:4,_RNvMNtNtCs8c0sLc0b2ph_15webhook_gateway8services13permata_loginNtB2_12LoginHandler19is_scheduler_active
FNDA:158,_RNvMNtNtCs8c0sLc0b2ph_15webhook_gateway8services13permata_loginNtB2_12LoginHandler22get_token_with_context
FNDA:4,_RNvMNtNtCs8c0sLc0b2ph_15webhook_gateway8services13permata_loginNtB2_12LoginHandler24clear_cache_with_context
FNDA:68,_RNvMNtNtCs8c0sLc0b2ph_15webhook_gateway8services13permata_loginNtB2_12LoginHandler28start_periodic_token_refresh
FNDA:382,_RNvMNtNtCs8c0sLc0b2ph_15webhook_gateway8services13permata_loginNtB2_12LoginHandler31make_login_request_with_context
FNDA:68,_RNvMNtNtCs8c0sLc0b2ph_15webhook_gateway8services13permata_loginNtB2_12LoginHandler3new
FNDA:28,_RNvMNtNtCs8c0sLc0b2ph_15webhook_gateway8services13permata_loginNtB2_12LoginHandler8shutdown
FNDA:10,_RNvMNtNtCs8c0sLc0b2ph_15webhook_gateway8services13permata_loginNtB2_12LoginHandler9get_token
FNDA:14,_RNCNvMNtNtCs8c0sLc0b2ph_15webhook_gateway8services13permata_loginNtB4_12LoginHandler8shutdown0CsgoC3FCBgbcl_3lib
FNDA:5,_RNCNvMNtNtCs8c0sLc0b2ph_15webhook_gateway8services13permata_loginNtB4_12LoginHandler9get_token0CsgoC3FCBgbcl_3lib
FNDA:14,_RNCNvMNtNtCs8c0sLc0b2ph_15webhook_gateway8services13permata_loginNtB4_12LoginHandler8shutdown0CsbBJszbEvitB_10unit_tests
FNDA:5,_RNCNvMNtNtCs8c0sLc0b2ph_15webhook_gateway8services13permata_loginNtB4_12LoginHandler9get_token0CsbBJszbEvitB_10unit_tests
FNDA:0,_RNCNCNvMNtNtCsf025XZeElGg_15webhook_gateway8services13permata_loginNtB6_12LoginHandler28start_periodic_token_refresh00Ba_
FNDA:0,_RNCNvMNtNtCsf025XZeElGg_15webhook_gateway8services13permata_loginNtB4_12LoginHandler18login_with_context0B8_
FNDA:0,_RNCNvMNtNtCsf025XZeElGg_15webhook_gateway8services13permata_loginNtB4_12LoginHandler22get_token_with_context0B8_
FNDA:0,_RNCNvMNtNtCsf025XZeElGg_15webhook_gateway8services13permata_loginNtB4_12LoginHandler28start_periodic_token_refresh0B8_
FNDA:0,_RNCNvMNtNtCsf025XZeElGg_15webhook_gateway8services13permata_loginNtB4_12LoginHandler31make_login_request_with_context0B8_
FNDA:0,_RNCNvMNtNtCsf025XZeElGg_15webhook_gateway8services13permata_loginNtB4_12LoginHandler8shutdown0B8_
FNDA:0,_RNCNvMNtNtCsf025XZeElGg_15webhook_gateway8services13permata_loginNtB4_12LoginHandler9get_token0B8_
FNDA:0,_RNvMNtNtCsf025XZeElGg_15webhook_gateway8services13permata_loginNtB2_12LoginHandler11clear_cache
FNDA:0,_RNvMNtNtCsf025XZeElGg_15webhook_gateway8services13permata_loginNtB2_12LoginHandler14stop_scheduler
FNDA:0,_RNvMNtNtCsf025XZeElGg_15webhook_gateway8services13permata_loginNtB2_12LoginHandler18get_scheduler_info
FNDA:0,_RNvMNtNtCsf025XZeElGg_15webhook_gateway8services13permata_loginNtB2_12LoginHandler18login_with_context
FNDA:0,_RNvMNtNtCsf025XZeElGg_15webhook_gateway8services13permata_loginNtB2_12LoginHandler19is_scheduler_active
FNDA:0,_RNvMNtNtCsf025XZeElGg_15webhook_gateway8services13permata_loginNtB2_12LoginHandler22get_token_with_context
FNDA:0,_RNvMNtNtCsf025XZeElGg_15webhook_gateway8services13permata_loginNtB2_12LoginHandler24clear_cache_with_context
FNDA:0,_RNvMNtNtCsf025XZeElGg_15webhook_gateway8services13permata_loginNtB2_12LoginHandler28start_periodic_token_refresh
FNDA:0,_RNvMNtNtCsf025XZeElGg_15webhook_gateway8services13permata_loginNtB2_12LoginHandler31make_login_request_with_context
FNDA:0,_RNvMNtNtCsf025XZeElGg_15webhook_gateway8services13permata_loginNtB2_12LoginHandler3new
FNDA:0,_RNvMNtNtCsf025XZeElGg_15webhook_gateway8services13permata_loginNtB2_12LoginHandler8shutdown
FNDA:0,_RNvMNtNtCsf025XZeElGg_15webhook_gateway8services13permata_loginNtB2_12LoginHandler9get_token
FNDA:0,_RNCNvMNtNtCs8c0sLc0b2ph_15webhook_gateway8services13permata_loginNtB4_12LoginHandler8shutdown0Csfmh2Z66AXDD_15webhook_gateway
FNF:19
FNH:19
DA:29,68
DA:30,68
DA:31,68
DA:32,68
DA:33,68
DA:35,68
DA:37,68
DA:38,68
DA:39,68
DA:40,68
DA:41,68
DA:42,68
DA:45,68
DA:47,68
DA:48,68
DA:50,10
DA:51,10
DA:52,10
DA:54,158
DA:55,158
DA:59,158
DA:60,158
DA:61,6
DA:62,6
DA:63,6
DA:64,6
DA:65,6
DA:66,6
DA:68,6
DA:69,0
DA:70,152
DA:74,152
DA:75,152
DA:76,152
DA:77,152
DA:78,152
DA:80,152
DA:83,31
DA:84,31
DA:85,31
DA:86,31
DA:87,31
DA:89,31
DA:90,31
DA:91,31
DA:92,31
DA:96,31
DA:97,149
DA:99,68
DA:100,68
DA:101,68
DA:104,68
DA:105,46
DA:106,46
DA:108,46
DA:109,46
DA:110,46
DA:111,46
DA:112,46
DA:113,46
DA:117,46
DA:118,46
DA:119,46
DA:120,46
DA:123,46
DA:124,37
DA:125,37
DA:126,46
DA:127,68
DA:129,152
DA:130,152
DA:131,152
DA:133,152
DA:135,382
DA:136,382
DA:137,31
DA:138,31
DA:139,31
DA:140,31
DA:141,31
DA:142,31
DA:144,31
DA:146,344
DA:147,344
DA:148,344
DA:149,232
DA:150,232
DA:151,232
DA:152,232
DA:154,232
DA:155,112
DA:156,112
DA:157,112
DA:158,112
DA:159,112
DA:160,112
DA:161,112
DA:162,112
DA:167,112
DA:168,143
DA:170,382
DA:172,382
DA:173,382
DA:174,382
DA:175,382
DA:178,382
DA:179,382
DA:182,382
DA:183,382
DA:184,382
DA:185,382
DA:186,382
DA:187,0
DA:189,382
DA:190,382
DA:191,382
DA:192,382
DA:193,382
DA:194,382
DA:195,382
DA:196,382
DA:197,382
DA:198,382
DA:200,375
DA:201,56
DA:202,56
DA:203,56
DA:205,56
DA:206,56
DA:207,56
DA:208,56
DA:212,56
DA:213,56
DA:214,56
DA:215,56
DA:216,56
DA:217,56
DA:219,56
DA:220,56
DA:221,56
DA:222,319
DA:224,319
DA:225,31
DA:226,31
DA:227,31
DA:228,31
DA:229,31
DA:232,31
DA:233,375
DA:235,2
DA:236,2
DA:237,2
DA:239,4
DA:240,4
DA:241,4
DA:242,4
DA:243,4
DA:244,4
DA:245,4
DA:246,4
DA:250,4
DA:251,4
DA:253,2
DA:254,2
DA:255,2
DA:258,4
DA:259,4
DA:260,4
DA:262,4
DA:263,4
DA:264,4
DA:267,28
DA:268,28
DA:269,28
DA:270,28
DA:271,28
DA:272,28
DA:274,28
DA:275,28
BRF:0
BRH:0
LF:185
LH:183
end_of_record
SF:D:\Rust\permata-gateway\src\services\telegram_alert.rs
FN:29,_RNCNvMNtNtCs8c0sLc0b2ph_15webhook_gateway8services14telegram_alertNtB4_20TelegramAlertService16send_error_alert0B8_
FN:32,_RNCNvMNtNtCs8c0sLc0b2ph_15webhook_gateway8services14telegram_alertNtB4_20TelegramAlertService16send_error_alerts_0B8_
FN:25,_RNvMNtNtCs8c0sLc0b2ph_15webhook_gateway8services14telegram_alertNtB2_20TelegramAlertService16send_error_alert
FN:16,_RNvMNtNtCs8c0sLc0b2ph_15webhook_gateway8services14telegram_alertNtB2_20TelegramAlertService3new
FN:29,_RNCNvMNtNtCsf025XZeElGg_15webhook_gateway8services14telegram_alertNtB4_20TelegramAlertService16send_error_alert0B8_
FN:32,_RNCNvMNtNtCsf025XZeElGg_15webhook_gateway8services14telegram_alertNtB4_20TelegramAlertService16send_error_alerts_0B8_
FN:25,_RNvMNtNtCsf025XZeElGg_15webhook_gateway8services14telegram_alertNtB2_20TelegramAlertService16send_error_alert
FN:16,_RNvMNtNtCsf025XZeElGg_15webhook_gateway8services14telegram_alertNtB2_20TelegramAlertService3new
FNDA:244,_RNCNvMNtNtCs8c0sLc0b2ph_15webhook_gateway8services14telegram_alertNtB4_20TelegramAlertService16send_error_alert0B8_
FNDA:220,_RNCNvMNtNtCs8c0sLc0b2ph_15webhook_gateway8services14telegram_alertNtB4_20TelegramAlertService16send_error_alerts_0B8_
FNDA:254,_RNvMNtNtCs8c0sLc0b2ph_15webhook_gateway8services14telegram_alertNtB2_20TelegramAlertService16send_error_alert
FNDA:138,_RNvMNtNtCs8c0sLc0b2ph_15webhook_gateway8services14telegram_alertNtB2_20TelegramAlertService3new
FNDA:0,_RNCNvMNtNtCsf025XZeElGg_15webhook_gateway8services14telegram_alertNtB4_20TelegramAlertService16send_error_alert0B8_
FNDA:0,_RNCNvMNtNtCsf025XZeElGg_15webhook_gateway8services14telegram_alertNtB4_20TelegramAlertService16send_error_alerts_0B8_
FNDA:0,_RNvMNtNtCsf025XZeElGg_15webhook_gateway8services14telegram_alertNtB2_20TelegramAlertService16send_error_alert
FNDA:0,_RNvMNtNtCsf025XZeElGg_15webhook_gateway8services14telegram_alertNtB2_20TelegramAlertService3new
FNF:4
FNH:4
DA:16,138
DA:17,138
DA:18,138
DA:19,138
DA:20,138
DA:22,138
DA:23,138
DA:25,254
DA:26,254
DA:27,254
DA:28,254
DA:29,254
DA:32,254
DA:33,220
DA:34,212
DA:35,212
DA:40,8
DA:41,8
DA:47,220
DA:48,220
DA:49,220
DA:50,220
DA:53,220
DA:54,220
DA:55,220
DA:56,220
DA:57,220
DA:58,220
DA:60,46
DA:61,46
DA:62,0
DA:63,0
DA:64,0
DA:65,0
DA:66,0
DA:67,46
DA:68,46
DA:69,46
DA:70,46
DA:71,46
DA:72,46
DA:75,4
DA:76,4
DA:77,4
DA:78,4
DA:79,4
DA:80,4
DA:82,50
DA:83,254
BRF:0
BRH:0
LF:51
LH:46
end_of_record
SF:D:\Rust\permata-gateway\src\services\token_scheduler.rs
FN:195,_RNvXs0_NtNtCs8c0sLc0b2ph_15webhook_gateway8services15token_schedulerNtB5_14TokenSchedulerNtNtNtCsixiwFwjEgS7_4core3ops4drop4Drop4drop
FN:54,_RINvMNtNtCs8c0sLc0b2ph_15webhook_gateway8services15token_schedulerNtB3_14TokenScheduler22start_scheduler_simplepEB7_
FN:59,_RNCINvMNtNtCs8c0sLc0b2ph_15webhook_gateway8services15token_schedulerNtB5_14TokenScheduler22start_scheduler_simplepE0B9_
FN:61,_RNCNCINvMNtNtCs8c0sLc0b2ph_15webhook_gateway8services15token_schedulerNtB7_14TokenScheduler22start_scheduler_simplepE00Bb_
FN:35,_RINvMNtNtCs8c0sLc0b2ph_15webhook_gateway8services15token_schedulerNtB3_14TokenScheduler15start_schedulerNCNvMNtB5_13permata_loginNtB1J_12LoginHandler28start_periodic_token_refresh0NCNCB1G_00EB7_
FN:70,_RINvMNtNtCs8c0sLc0b2ph_15webhook_gateway8services15token_schedulerNtB3_14TokenScheduler19spawn_periodic_taskNCNvMNtB5_13permata_loginNtB1N_12LoginHandler28start_periodic_token_refresh0NCNCB1K_00EB7_
FN:77,_RNCINvMNtNtCs8c0sLc0b2ph_15webhook_gateway8services15token_schedulerNtB5_14TokenScheduler19spawn_periodic_taskNCNvMNtB7_13permata_loginNtB1P_12LoginHandler28start_periodic_token_refresh0NCNCB1M_00E0B9_
FN:167,_RNvMNtNtCs8c0sLc0b2ph_15webhook_gateway8services15token_schedulerNtB2_14TokenScheduler10get_config
FN:27,_RNvMNtNtCs8c0sLc0b2ph_15webhook_gateway8services15token_schedulerNtB2_14TokenScheduler11with_config
FN:172,_RNvMNtNtCs8c0sLc0b2ph_15webhook_gateway8services15token_schedulerNtB2_14TokenScheduler13update_config
FN:135,_RNvMNtNtCs8c0sLc0b2ph_15webhook_gateway8services15token_schedulerNtB2_14TokenScheduler14stop_scheduler
FN:155,_RNvMNtNtCs8c0sLc0b2ph_15webhook_gateway8services15token_schedulerNtB2_14TokenScheduler18get_scheduler_info
FN:149,_RNvMNtNtCs8c0sLc0b2ph_15webhook_gateway8services15token_schedulerNtB2_14TokenScheduler19is_scheduler_active
FN:21,_RNvMNtNtCs8c0sLc0b2ph_15webhook_gateway8services15token_schedulerNtB2_14TokenScheduler3new
FN:177,_RNvMNtNtCs8c0sLc0b2ph_15webhook_gateway8services15token_schedulerNtB2_14TokenScheduler8shutdown
FN:189,_RNvXs_NtNtCs8c0sLc0b2ph_15webhook_gateway8services15token_schedulerNtB4_14TokenSchedulerNtNtCsixiwFwjEgS7_4core7default7Default7default
FN:35,_RINvMNtNtCs8c0sLc0b2ph_15webhook_gateway8services15token_schedulerNtB3_14TokenScheduler15start_schedulerNCINvB2_22start_scheduler_simpleNCNCNCNvNtNtNtCsgoC3FCBgbcl_3lib4unit8services26token_scheduler_edge_casess_36test_concurrent_scheduler_operations000E0NCNCB1G_00EB2o_
FN:35,_RINvMNtNtCs8c0sLc0b2ph_15webhook_gateway8services15token_schedulerNtB3_14TokenScheduler15start_schedulerNCINvB2_22start_scheduler_simpleNCNCNvNtNtNtCsgoC3FCBgbcl_3lib4unit8services21token_scheduler_testss_19test_scheduler_stop00E0NCNCB1G_00EB2m_
FN:35,_RINvMNtNtCs8c0sLc0b2ph_15webhook_gateway8services15token_schedulerNtB3_14TokenScheduler15start_schedulerNCINvB2_22start_scheduler_simpleNCNCNvNtNtNtCsgoC3FCBgbcl_3lib4unit8services21token_scheduler_testss_23test_scheduler_shutdown00E0NCNCB1G_00EB2m_
FN:35,_RINvMNtNtCs8c0sLc0b2ph_15webhook_gateway8services15token_schedulerNtB3_14TokenScheduler15start_schedulerNCINvB2_22start_scheduler_simpleNCNCNvNtNtNtCsgoC3FCBgbcl_3lib4unit8services21token_scheduler_testss_26test_scheduler_replacement00E0NCNCB1G_00EB2m_
FN:35,_RINvMNtNtCs8c0sLc0b2ph_15webhook_gateway8services15token_schedulerNtB3_14TokenScheduler15start_schedulerNCINvB2_22start_scheduler_simpleNCNCNvNtNtNtCsgoC3FCBgbcl_3lib4unit8services21token_scheduler_testss_26test_scheduler_replacement0s_0E0NCNCB1G_00EB2m_
FN:35,_RINvMNtNtCs8c0sLc0b2ph_15webhook_gateway8services15token_schedulerNtB3_14TokenScheduler15start_schedulerNCINvB2_22start_scheduler_simpleNCNCNvNtNtNtCsgoC3FCBgbcl_3lib4unit8services21token_scheduler_testss_32test_scheduler_config_validation00E0NCNCB1G_00EB2m_
FN:35,_RINvMNtNtCs8c0sLc0b2ph_15webhook_gateway8services15token_schedulerNtB3_14TokenScheduler15start_schedulerNCINvB2_22start_scheduler_simpleNCNCNvNtNtNtCsgoC3FCBgbcl_3lib4unit8services26token_scheduler_edge_casess_31test_scheduler_info_consistency00E0NCNCB1G_00EB2m_
FN:35,_RINvMNtNtCs8c0sLc0b2ph_15webhook_gateway8services15token_schedulerNtB3_14TokenScheduler15start_schedulerNCINvB2_22start_scheduler_simpleNCNCNvNtNtNtCsgoC3FCBgbcl_3lib4unit8services26token_scheduler_edge_casess_36test_scheduler_config_extreme_values00E0NCNCB1G_00EB2m_
FN:35,_RINvMNtNtCs8c0sLc0b2ph_15webhook_gateway8services15token_schedulerNtB3_14TokenScheduler15start_schedulerNCINvB2_22start_scheduler_simpleNCNCNvNtNtNtCsgoC3FCBgbcl_3lib4unit8services26token_scheduler_edge_casess_51test_scheduler_simple_vs_async_callback_equivalence00E0NCNCB1G_00EB2m_
FN:35,_RINvMNtNtCs8c0sLc0b2ph_15webhook_gateway8services15token_schedulerNtB3_14TokenScheduler15start_schedulerNCINvB2_22start_scheduler_simpleNCNCNvNtNtNtCsgoC3FCBgbcl_3lib4unit8services26token_scheduler_edge_casess_51test_scheduler_update_config_during_active_schedule00E0NCNCB1G_00EB2m_
FN:35,_RINvMNtNtCs8c0sLc0b2ph_15webhook_gateway8services15token_schedulerNtB3_14TokenScheduler15start_schedulerNCINvB2_22start_scheduler_simpleNCNCNvNtNtNtCsgoC3FCBgbcl_3lib4unit8services30token_scheduler_periodic_testss_32test_periodic_scheduler_shutdown00E0NCNCB1G_00EB2m_
FN:35,_RINvMNtNtCs8c0sLc0b2ph_15webhook_gateway8services15token_schedulerNtB3_14TokenScheduler15start_schedulerNCINvB2_22start_scheduler_simpleNCNCNvNtNtNtCsgoC3FCBgbcl_3lib4unit8services30token_scheduler_periodic_testss_34test_periodic_scheduler_start_stop00E0NCNCB1G_00EB2m_
FN:35,_RINvMNtNtCs8c0sLc0b2ph_15webhook_gateway8services15token_schedulerNtB3_14TokenScheduler15start_schedulerNCINvB2_22start_scheduler_simpleNCNCNvNtNtNtCsgoC3FCBgbcl_3lib4unit8services30token_scheduler_periodic_testss_35test_periodic_scheduler_replacement00E0NCNCB1G_00EB2m_
FN:35,_RINvMNtNtCs8c0sLc0b2ph_15webhook_gateway8services15token_schedulerNtB3_14TokenScheduler15start_schedulerNCINvB2_22start_scheduler_simpleNCNCNvNtNtNtCsgoC3FCBgbcl_3lib4unit8services30token_scheduler_periodic_testss_35test_periodic_scheduler_replacement0s_0E0NCNCB1G_00EB2m_
FN:35,_RINvMNtNtCs8c0sLc0b2ph_15webhook_gateway8services15token_schedulerNtB3_14TokenScheduler15start_schedulerNCINvB2_22start_scheduler_simpleNCNCNvNtNtNtCsgoC3FCBgbcl_3lib4unit8services30token_scheduler_periodic_testss_37test_periodic_scheduler_drop_behavior00E0NCNCB1G_00EB2m_
FN:35,_RINvMNtNtCs8c0sLc0b2ph_15webhook_gateway8services15token_schedulerNtB3_14TokenScheduler15start_schedulerNCNCNvNtNtNtCsgoC3FCBgbcl_3lib4unit8services26token_scheduler_edge_casess_28test_scheduler_drop_behavior00NCNCB1G_00EB1Q_
FN:35,_RINvMNtNtCs8c0sLc0b2ph_15webhook_gateway8services15token_schedulerNtB3_14TokenScheduler15start_schedulerNCNCNvNtNtNtCsgoC3FCBgbcl_3lib4unit8services26token_scheduler_edge_casess_34test_multiple_rapid_schedule_calls00NCNCB1G_00EB1Q_
FN:35,_RINvMNtNtCs8c0sLc0b2ph_15webhook_gateway8services15token_schedulerNtB3_14TokenScheduler15start_schedulerNCNCNvNtNtNtCsgoC3FCBgbcl_3lib4unit8services26token_scheduler_edge_casess_36test_scheduler_with_minimal_interval00NCNCB1G_00EB1Q_
FN:35,_RINvMNtNtCs8c0sLc0b2ph_15webhook_gateway8services15token_schedulerNtB3_14TokenScheduler15start_schedulerNCNCNvNtNtNtCsgoC3FCBgbcl_3lib4unit8services26token_scheduler_edge_casess_38test_scheduler_callback_error_handling00NCNCB1G_00EB1Q_
FN:35,_RINvMNtNtCs8c0sLc0b2ph_15webhook_gateway8services15token_schedulerNtB3_14TokenScheduler15start_schedulerNCNCNvNtNtNtCsgoC3FCBgbcl_3lib4unit8services26token_scheduler_edge_casess_51test_scheduler_simple_vs_async_callback_equivalence0s_0NCNCB1G_s_00EB1Q_
FN:35,_RINvMNtNtCs8c0sLc0b2ph_15webhook_gateway8services15token_schedulerNtB3_14TokenScheduler15start_schedulerNCNCNvNtNtNtCsgoC3FCBgbcl_3lib4unit8services30token_scheduler_periodic_debugs_34test_scheduler_immediate_execution00NCNCB1G_00EB1Q_
FN:35,_RINvMNtNtCs8c0sLc0b2ph_15webhook_gateway8services15token_schedulerNtB3_14TokenScheduler15start_schedulerNCNCNvNtNtNtCsgoC3FCBgbcl_3lib4unit8services30token_scheduler_periodic_debugs_34test_scheduler_runs_multiple_times00NCNCB1G_00EB1Q_
FN:35,_RINvMNtNtCs8c0sLc0b2ph_15webhook_gateway8services15token_schedulerNtB3_14TokenScheduler15start_schedulerNCNCNvNtNtNtCsgoC3FCBgbcl_3lib4unit8services30token_scheduler_periodic_testss_38test_periodic_scheduler_async_callback00NCNCB1G_00EB1Q_
FN:70,_RINvMNtNtCs8c0sLc0b2ph_15webhook_gateway8services15token_schedulerNtB3_14TokenScheduler19spawn_periodic_taskNCINvB2_22start_scheduler_simpleNCNCNCNvNtNtNtCsgoC3FCBgbcl_3lib4unit8services26token_scheduler_edge_casess_36test_concurrent_scheduler_operations000E0NCNCB1K_00EB2s_
FN:70,_RINvMNtNtCs8c0sLc0b2ph_15webhook_gateway8services15token_schedulerNtB3_14TokenScheduler19spawn_periodic_taskNCINvB2_22start_scheduler_simpleNCNCNvNtNtNtCsgoC3FCBgbcl_3lib4unit8services21token_scheduler_testss_19test_scheduler_stop00E0NCNCB1K_00EB2q_
FN:70,_RINvMNtNtCs8c0sLc0b2ph_15webhook_gateway8services15token_schedulerNtB3_14TokenScheduler19spawn_periodic_taskNCINvB2_22start_scheduler_simpleNCNCNvNtNtNtCsgoC3FCBgbcl_3lib4unit8services21token_scheduler_testss_23test_scheduler_shutdown00E0NCNCB1K_00EB2q_
FN:70,_RINvMNtNtCs8c0sLc0b2ph_15webhook_gateway8services15token_schedulerNtB3_14TokenScheduler19spawn_periodic_taskNCINvB2_22start_scheduler_simpleNCNCNvNtNtNtCsgoC3FCBgbcl_3lib4unit8services21token_scheduler_testss_26test_scheduler_replacement00E0NCNCB1K_00EB2q_
FN:70,_RINvMNtNtCs8c0sLc0b2ph_15webhook_gateway8services15token_schedulerNtB3_14TokenScheduler19spawn_periodic_taskNCINvB2_22start_scheduler_simpleNCNCNvNtNtNtCsgoC3FCBgbcl_3lib4unit8services21token_scheduler_testss_26test_scheduler_replacement0s_0E0NCNCB1K_00EB2q_
FN:70,_RINvMNtNtCs8c0sLc0b2ph_15webhook_gateway8services15token_schedulerNtB3_14TokenScheduler19spawn_periodic_taskNCINvB2_22start_scheduler_simpleNCNCNvNtNtNtCsgoC3FCBgbcl_3lib4unit8services21token_scheduler_testss_32test_scheduler_config_validation00E0NCNCB1K_00EB2q_
FN:70,_RINvMNtNtCs8c0sLc0b2ph_15webhook_gateway8services15token_schedulerNtB3_14TokenScheduler19spawn_periodic_taskNCINvB2_22start_scheduler_simpleNCNCNvNtNtNtCsgoC3FCBgbcl_3lib4unit8services26token_scheduler_edge_casess_31test_scheduler_info_consistency00E0NCNCB1K_00EB2q_
FN:70,_RINvMNtNtCs8c0sLc0b2ph_15webhook_gateway8services15token_schedulerNtB3_14TokenScheduler19spawn_periodic_taskNCINvB2_22start_scheduler_simpleNCNCNvNtNtNtCsgoC3FCBgbcl_3lib4unit8services26token_scheduler_edge_casess_36test_scheduler_config_extreme_values00E0NCNCB1K_00EB2q_
FN:70,_RINvMNtNtCs8c0sLc0b2ph_15webhook_gateway8services15token_schedulerNtB3_14TokenScheduler19spawn_periodic_taskNCINvB2_22start_scheduler_simpleNCNCNvNtNtNtCsgoC3FCBgbcl_3lib4unit8services26token_scheduler_edge_casess_51test_scheduler_simple_vs_async_callback_equivalence00E0NCNCB1K_00EB2q_
FN:70,_RINvMNtNtCs8c0sLc0b2ph_15webhook_gateway8services15token_schedulerNtB3_14TokenScheduler19spawn_periodic_taskNCINvB2_22start_scheduler_simpleNCNCNvNtNtNtCsgoC3FCBgbcl_3lib4unit8services26token_scheduler_edge_casess_51test_scheduler_update_config_during_active_schedule00E0NCNCB1K_00EB2q_
FN:70,_RINvMNtNtCs8c0sLc0b2ph_15webhook_gateway8services15token_schedulerNtB3_14TokenScheduler19spawn_periodic_taskNCINvB2_22start_scheduler_simpleNCNCNvNtNtNtCsgoC3FCBgbcl_3lib4unit8services30token_scheduler_periodic_testss_32test_periodic_scheduler_shutdown00E0NCNCB1K_00EB2q_
FN:70,_RINvMNtNtCs8c0sLc0b2ph_15webhook_gateway8services15token_schedulerNtB3_14TokenScheduler19spawn_periodic_taskNCINvB2_22start_scheduler_simpleNCNCNvNtNtNtCsgoC3FCBgbcl_3lib4unit8services30token_scheduler_periodic_testss_34test_periodic_scheduler_start_stop00E0NCNCB1K_00EB2q_
FN:70,_RINvMNtNtCs8c0sLc0b2ph_15webhook_gateway8services15token_schedulerNtB3_14TokenScheduler19spawn_periodic_taskNCINvB2_22start_scheduler_simpleNCNCNvNtNtNtCsgoC3FCBgbcl_3lib4unit8services30token_scheduler_periodic_testss_35test_periodic_scheduler_replacement00E0NCNCB1K_00EB2q_
FN:70,_RINvMNtNtCs8c0sLc0b2ph_15webhook_gateway8services15token_schedulerNtB3_14TokenScheduler19spawn_periodic_taskNCINvB2_22start_scheduler_simpleNCNCNvNtNtNtCsgoC3FCBgbcl_3lib4unit8services30token_scheduler_periodic_testss_35test_periodic_scheduler_replacement0s_0E0NCNCB1K_00EB2q_
FN:70,_RINvMNtNtCs8c0sLc0b2ph_15webhook_gateway8services15token_schedulerNtB3_14TokenScheduler19spawn_periodic_taskNCINvB2_22start_scheduler_simpleNCNCNvNtNtNtCsgoC3FCBgbcl_3lib4unit8services30token_scheduler_periodic_testss_37test_periodic_scheduler_drop_behavior00E0NCNCB1K_00EB2q_
FN:70,_RINvMNtNtCs8c0sLc0b2ph_15webhook_gateway8services15token_schedulerNtB3_14TokenScheduler19spawn_periodic_taskNCNCNvNtNtNtCsgoC3FCBgbcl_3lib4unit8services26token_scheduler_edge_casess_28test_scheduler_drop_behavior00NCNCB1K_00EB1U_
FN:70,_RINvMNtNtCs8c0sLc0b2ph_15webhook_gateway8services15token_schedulerNtB3_14TokenScheduler19spawn_periodic_taskNCNCNvNtNtNtCsgoC3FCBgbcl_3lib4unit8services26token_scheduler_edge_casess_34test_multiple_rapid_schedule_calls00NCNCB1K_00EB1U_
FN:70,_RINvMNtNtCs8c0sLc0b2ph_15webhook_gateway8services15token_schedulerNtB3_14TokenScheduler19spawn_periodic_taskNCNCNvNtNtNtCsgoC3FCBgbcl_3lib4unit8services26token_scheduler_edge_casess_36test_scheduler_with_minimal_interval00NCNCB1K_00EB1U_
FN:70,_RINvMNtNtCs8c0sLc0b2ph_15webhook_gateway8services15token_schedulerNtB3_14TokenScheduler19spawn_periodic_taskNCNCNvNtNtNtCsgoC3FCBgbcl_3lib4unit8services26token_scheduler_edge_casess_38test_scheduler_callback_error_handling00NCNCB1K_00EB1U_
FN:70,_RINvMNtNtCs8c0sLc0b2ph_15webhook_gateway8services15token_schedulerNtB3_14TokenScheduler19spawn_periodic_taskNCNCNvNtNtNtCsgoC3FCBgbcl_3lib4unit8services26token_scheduler_edge_casess_51test_scheduler_simple_vs_async_callback_equivalence0s_0NCNCB1K_s_00EB1U_
FN:70,_RINvMNtNtCs8c0sLc0b2ph_15webhook_gateway8services15token_schedulerNtB3_14TokenScheduler19spawn_periodic_taskNCNCNvNtNtNtCsgoC3FCBgbcl_3lib4unit8services30token_scheduler_periodic_debugs_34test_scheduler_immediate_execution00NCNCB1K_00EB1U_
FN:70,_RINvMNtNtCs8c0sLc0b2ph_15webhook_gateway8services15token_schedulerNtB3_14TokenScheduler19spawn_periodic_taskNCNCNvNtNtNtCsgoC3FCBgbcl_3lib4unit8services30token_scheduler_periodic_debugs_34test_scheduler_runs_multiple_times00NCNCB1K_00EB1U_
FN:70,_RINvMNtNtCs8c0sLc0b2ph_15webhook_gateway8services15token_schedulerNtB3_14TokenScheduler19spawn_periodic_taskNCNCNvNtNtNtCsgoC3FCBgbcl_3lib4unit8services30token_scheduler_periodic_testss_38test_periodic_scheduler_async_callback00NCNCB1K_00EB1U_
FN:54,_RINvMNtNtCs8c0sLc0b2ph_15webhook_gateway8services15token_schedulerNtB3_14TokenScheduler22start_scheduler_simpleNCNCNCNvNtNtNtCsgoC3FCBgbcl_3lib4unit8services26token_scheduler_edge_casess_36test_concurrent_scheduler_operations000EB1Z_
FN:54,_RINvMNtNtCs8c0sLc0b2ph_15webhook_gateway8services15token_schedulerNtB3_14TokenScheduler22start_scheduler_simpleNCNCNvNtNtNtCsgoC3FCBgbcl_3lib4unit8services21token_scheduler_testss_19test_scheduler_stop00EB1X_
FN:54,_RINvMNtNtCs8c0sLc0b2ph_15webhook_gateway8services15token_schedulerNtB3_14TokenScheduler22start_scheduler_simpleNCNCNvNtNtNtCsgoC3FCBgbcl_3lib4unit8services21token_scheduler_testss_23test_scheduler_shutdown00EB1X_
FN:54,_RINvMNtNtCs8c0sLc0b2ph_15webhook_gateway8services15token_schedulerNtB3_14TokenScheduler22start_scheduler_simpleNCNCNvNtNtNtCsgoC3FCBgbcl_3lib4unit8services21token_scheduler_testss_26test_scheduler_replacement00EB1X_
FN:54,_RINvMNtNtCs8c0sLc0b2ph_15webhook_gateway8services15token_schedulerNtB3_14TokenScheduler22start_scheduler_simpleNCNCNvNtNtNtCsgoC3FCBgbcl_3lib4unit8services21token_scheduler_testss_26test_scheduler_replacement0s_0EB1X_
FN:54,_RINvMNtNtCs8c0sLc0b2ph_15webhook_gateway8services15token_schedulerNtB3_14TokenScheduler22start_scheduler_simpleNCNCNvNtNtNtCsgoC3FCBgbcl_3lib4unit8services21token_scheduler_testss_32test_scheduler_config_validation00EB1X_
FN:54,_RINvMNtNtCs8c0sLc0b2ph_15webhook_gateway8services15token_schedulerNtB3_14TokenScheduler22start_scheduler_simpleNCNCNvNtNtNtCsgoC3FCBgbcl_3lib4unit8services26token_scheduler_edge_casess_31test_scheduler_info_consistency00EB1X_
FN:54,_RINvMNtNtCs8c0sLc0b2ph_15webhook_gateway8services15token_schedulerNtB3_14TokenScheduler22start_scheduler_simpleNCNCNvNtNtNtCsgoC3FCBgbcl_3lib4unit8services26token_scheduler_edge_casess_36test_scheduler_config_extreme_values00EB1X_
FN:54,_RINvMNtNtCs8c0sLc0b2ph_15webhook_gateway8services15token_schedulerNtB3_14TokenScheduler22start_scheduler_simpleNCNCNvNtNtNtCsgoC3FCBgbcl_3lib4unit8services26token_scheduler_edge_casess_51test_scheduler_simple_vs_async_callback_equivalence00EB1X_
FN:54,_RINvMNtNtCs8c0sLc0b2ph_15webhook_gateway8services15token_schedulerNtB3_14TokenScheduler22start_scheduler_simpleNCNCNvNtNtNtCsgoC3FCBgbcl_3lib4unit8services26token_scheduler_edge_casess_51test_scheduler_update_config_during_active_schedule00EB1X_
FN:54,_RINvMNtNtCs8c0sLc0b2ph_15webhook_gateway8services15token_schedulerNtB3_14TokenScheduler22start_scheduler_simpleNCNCNvNtNtNtCsgoC3FCBgbcl_3lib4unit8services30token_scheduler_periodic_testss_32test_periodic_scheduler_shutdown00EB1X_
FN:54,_RINvMNtNtCs8c0sLc0b2ph_15webhook_gateway8services15token_schedulerNtB3_14TokenScheduler22start_scheduler_simpleNCNCNvNtNtNtCsgoC3FCBgbcl_3lib4unit8services30token_scheduler_periodic_testss_34test_periodic_scheduler_start_stop00EB1X_
FN:54,_RINvMNtNtCs8c0sLc0b2ph_15webhook_gateway8services15token_schedulerNtB3_14TokenScheduler22start_scheduler_simpleNCNCNvNtNtNtCsgoC3FCBgbcl_3lib4unit8services30token_scheduler_periodic_testss_35test_periodic_scheduler_replacement00EB1X_
FN:54,_RINvMNtNtCs8c0sLc0b2ph_15webhook_gateway8services15token_schedulerNtB3_14TokenScheduler22start_scheduler_simpleNCNCNvNtNtNtCsgoC3FCBgbcl_3lib4unit8services30token_scheduler_periodic_testss_35test_periodic_scheduler_replacement0s_0EB1X_
FN:54,_RINvMNtNtCs8c0sLc0b2ph_15webhook_gateway8services15token_schedulerNtB3_14TokenScheduler22start_scheduler_simpleNCNCNvNtNtNtCsgoC3FCBgbcl_3lib4unit8services30token_scheduler_periodic_testss_37test_periodic_scheduler_drop_behavior00EB1X_
FN:77,_RNCINvMNtNtCs8c0sLc0b2ph_15webhook_gateway8services15token_schedulerNtB5_14TokenScheduler19spawn_periodic_taskNCINvB4_22start_scheduler_simpleNCNCNCNvNtNtNtCsgoC3FCBgbcl_3lib4unit8services26token_scheduler_edge_casess_36test_concurrent_scheduler_operations000E0NCNCB1M_00E0B2u_
FN:77,_RNCINvMNtNtCs8c0sLc0b2ph_15webhook_gateway8services15token_schedulerNtB5_14TokenScheduler19spawn_periodic_taskNCINvB4_22start_scheduler_simpleNCNCNvNtNtNtCsgoC3FCBgbcl_3lib4unit8services21token_scheduler_testss_19test_scheduler_stop00E0NCNCB1M_00E0B2s_
FN:77,_RNCINvMNtNtCs8c0sLc0b2ph_15webhook_gateway8services15token_schedulerNtB5_14TokenScheduler19spawn_periodic_taskNCINvB4_22start_scheduler_simpleNCNCNvNtNtNtCsgoC3FCBgbcl_3lib4unit8services21token_scheduler_testss_23test_scheduler_shutdown00E0NCNCB1M_00E0B2s_
FN:77,_RNCINvMNtNtCs8c0sLc0b2ph_15webhook_gateway8services15token_schedulerNtB5_14TokenScheduler19spawn_periodic_taskNCINvB4_22start_scheduler_simpleNCNCNvNtNtNtCsgoC3FCBgbcl_3lib4unit8services21token_scheduler_testss_26test_scheduler_replacement00E0NCNCB1M_00E0B2s_
FN:77,_RNCINvMNtNtCs8c0sLc0b2ph_15webhook_gateway8services15token_schedulerNtB5_14TokenScheduler19spawn_periodic_taskNCINvB4_22start_scheduler_simpleNCNCNvNtNtNtCsgoC3FCBgbcl_3lib4unit8services21token_scheduler_testss_26test_scheduler_replacement0s_0E0NCNCB1M_00E0B2s_
FN:77,_RNCINvMNtNtCs8c0sLc0b2ph_15webhook_gateway8services15token_schedulerNtB5_14TokenScheduler19spawn_periodic_taskNCINvB4_22start_scheduler_simpleNCNCNvNtNtNtCsgoC3FCBgbcl_3lib4unit8services21token_scheduler_testss_32test_scheduler_config_validation00E0NCNCB1M_00E0B2s_
FN:77,_RNCINvMNtNtCs8c0sLc0b2ph_15webhook_gateway8services15token_schedulerNtB5_14TokenScheduler19spawn_periodic_taskNCINvB4_22start_scheduler_simpleNCNCNvNtNtNtCsgoC3FCBgbcl_3lib4unit8services26token_scheduler_edge_casess_31test_scheduler_info_consistency00E0NCNCB1M_00E0B2s_
FN:77,_RNCINvMNtNtCs8c0sLc0b2ph_15webhook_gateway8services15token_schedulerNtB5_14TokenScheduler19spawn_periodic_taskNCINvB4_22start_scheduler_simpleNCNCNvNtNtNtCsgoC3FCBgbcl_3lib4unit8services26token_scheduler_edge_casess_36test_scheduler_config_extreme_values00E0NCNCB1M_00E0B2s_
FN:77,_RNCINvMNtNtCs8c0sLc0b2ph_15webhook_gateway8services15token_schedulerNtB5_14TokenScheduler19spawn_periodic_taskNCINvB4_22start_scheduler_simpleNCNCNvNtNtNtCsgoC3FCBgbcl_3lib4unit8services26token_scheduler_edge_casess_51test_scheduler_simple_vs_async_callback_equivalence00E0NCNCB1M_00E0B2s_
FN:77,_RNCINvMNtNtCs8c0sLc0b2ph_15webhook_gateway8services15token_schedulerNtB5_14TokenScheduler19spawn_periodic_taskNCINvB4_22start_scheduler_simpleNCNCNvNtNtNtCsgoC3FCBgbcl_3lib4unit8services26token_scheduler_edge_casess_51test_scheduler_update_config_during_active_schedule00E0NCNCB1M_00E0B2s_
FN:77,_RNCINvMNtNtCs8c0sLc0b2ph_15webhook_gateway8services15token_schedulerNtB5_14TokenScheduler19spawn_periodic_taskNCINvB4_22start_scheduler_simpleNCNCNvNtNtNtCsgoC3FCBgbcl_3lib4unit8services30token_scheduler_periodic_testss_32test_periodic_scheduler_shutdown00E0NCNCB1M_00E0B2s_
FN:77,_RNCINvMNtNtCs8c0sLc0b2ph_15webhook_gateway8services15token_schedulerNtB5_14TokenScheduler19spawn_periodic_taskNCINvB4_22start_scheduler_simpleNCNCNvNtNtNtCsgoC3FCBgbcl_3lib4unit8services30token_scheduler_periodic_testss_34test_periodic_scheduler_start_stop00E0NCNCB1M_00E0B2s_
FN:77,_RNCINvMNtNtCs8c0sLc0b2ph_15webhook_gateway8services15token_schedulerNtB5_14TokenScheduler19spawn_periodic_taskNCINvB4_22start_scheduler_simpleNCNCNvNtNtNtCsgoC3FCBgbcl_3lib4unit8services30token_scheduler_periodic_testss_35test_periodic_scheduler_replacement00E0NCNCB1M_00E0B2s_
FN:77,_RNCINvMNtNtCs8c0sLc0b2ph_15webhook_gateway8services15token_schedulerNtB5_14TokenScheduler19spawn_periodic_taskNCINvB4_22start_scheduler_simpleNCNCNvNtNtNtCsgoC3FCBgbcl_3lib4unit8services30token_scheduler_periodic_testss_35test_periodic_scheduler_replacement0s_0E0NCNCB1M_00E0B2s_
FN:77,_RNCINvMNtNtCs8c0sLc0b2ph_15webhook_gateway8services15token_schedulerNtB5_14TokenScheduler19spawn_periodic_taskNCINvB4_22start_scheduler_simpleNCNCNvNtNtNtCsgoC3FCBgbcl_3lib4unit8services30token_scheduler_periodic_testss_37test_periodic_scheduler_drop_behavior00E0NCNCB1M_00E0B2s_
FN:77,_RNCINvMNtNtCs8c0sLc0b2ph_15webhook_gateway8services15token_schedulerNtB5_14TokenScheduler19spawn_periodic_taskNCNCNvNtNtNtCsgoC3FCBgbcl_3lib4unit8services26token_scheduler_edge_casess_28test_scheduler_drop_behavior00NCNCB1M_00E0B1W_
FN:77,_RNCINvMNtNtCs8c0sLc0b2ph_15webhook_gateway8services15token_schedulerNtB5_14TokenScheduler19spawn_periodic_taskNCNCNvNtNtNtCsgoC3FCBgbcl_3lib4unit8services26token_scheduler_edge_casess_34test_multiple_rapid_schedule_calls00NCNCB1M_00E0B1W_
FN:77,_RNCINvMNtNtCs8c0sLc0b2ph_15webhook_gateway8services15token_schedulerNtB5_14TokenScheduler19spawn_periodic_taskNCNCNvNtNtNtCsgoC3FCBgbcl_3lib4unit8services26token_scheduler_edge_casess_36test_scheduler_with_minimal_interval00NCNCB1M_00E0B1W_
FN:77,_RNCINvMNtNtCs8c0sLc0b2ph_15webhook_gateway8services15token_schedulerNtB5_14TokenScheduler19spawn_periodic_taskNCNCNvNtNtNtCsgoC3FCBgbcl_3lib4unit8services26token_scheduler_edge_casess_38test_scheduler_callback_error_handling00NCNCB1M_00E0B1W_
FN:77,_RNCINvMNtNtCs8c0sLc0b2ph_15webhook_gateway8services15token_schedulerNtB5_14TokenScheduler19spawn_periodic_taskNCNCNvNtNtNtCsgoC3FCBgbcl_3lib4unit8services26token_scheduler_edge_casess_51test_scheduler_simple_vs_async_callback_equivalence0s_0NCNCB1M_s_00E0B1W_
FN:77,_RNCINvMNtNtCs8c0sLc0b2ph_15webhook_gateway8services15token_schedulerNtB5_14TokenScheduler19spawn_periodic_taskNCNCNvNtNtNtCsgoC3FCBgbcl_3lib4unit8services30token_scheduler_periodic_debugs_34test_scheduler_immediate_execution00NCNCB1M_00E0B1W_
FN:77,_RNCINvMNtNtCs8c0sLc0b2ph_15webhook_gateway8services15token_schedulerNtB5_14TokenScheduler19spawn_periodic_taskNCNCNvNtNtNtCsgoC3FCBgbcl_3lib4unit8services30token_scheduler_periodic_debugs_34test_scheduler_runs_multiple_times00NCNCB1M_00E0B1W_
FN:77,_RNCINvMNtNtCs8c0sLc0b2ph_15webhook_gateway8services15token_schedulerNtB5_14TokenScheduler19spawn_periodic_taskNCNCNvNtNtNtCsgoC3FCBgbcl_3lib4unit8services30token_scheduler_periodic_testss_38test_periodic_scheduler_async_callback00NCNCB1M_00E0B1W_
FN:59,_RNCINvMNtNtCs8c0sLc0b2ph_15webhook_gateway8services15token_schedulerNtB5_14TokenScheduler22start_scheduler_simpleNCNCNCNvNtNtNtCsgoC3FCBgbcl_3lib4unit8services26token_scheduler_edge_casess_36test_concurrent_scheduler_operations000E0B21_
FN:59,_RNCINvMNtNtCs8c0sLc0b2ph_15webhook_gateway8services15token_schedulerNtB5_14TokenScheduler22start_scheduler_simpleNCNCNvNtNtNtCsgoC3FCBgbcl_3lib4unit8services21token_scheduler_testss_19test_scheduler_stop00E0B1Z_
FN:59,_RNCINvMNtNtCs8c0sLc0b2ph_15webhook_gateway8services15token_schedulerNtB5_14TokenScheduler22start_scheduler_simpleNCNCNvNtNtNtCsgoC3FCBgbcl_3lib4unit8services21token_scheduler_testss_23test_scheduler_shutdown00E0B1Z_
FN:59,_RNCINvMNtNtCs8c0sLc0b2ph_15webhook_gateway8services15token_schedulerNtB5_14TokenScheduler22start_scheduler_simpleNCNCNvNtNtNtCsgoC3FCBgbcl_3lib4unit8services21token_scheduler_testss_26test_scheduler_replacement00E0B1Z_
FN:59,_RNCINvMNtNtCs8c0sLc0b2ph_15webhook_gateway8services15token_schedulerNtB5_14TokenScheduler22start_scheduler_simpleNCNCNvNtNtNtCsgoC3FCBgbcl_3lib4unit8services21token_scheduler_testss_26test_scheduler_replacement0s_0E0B1Z_
FN:59,_RNCINvMNtNtCs8c0sLc0b2ph_15webhook_gateway8services15token_schedulerNtB5_14TokenScheduler22start_scheduler_simpleNCNCNvNtNtNtCsgoC3FCBgbcl_3lib4unit8services21token_scheduler_testss_32test_scheduler_config_validation00E0B1Z_
FN:59,_RNCINvMNtNtCs8c0sLc0b2ph_15webhook_gateway8services15token_schedulerNtB5_14TokenScheduler22start_scheduler_simpleNCNCNvNtNtNtCsgoC3FCBgbcl_3lib4unit8services26token_scheduler_edge_casess_31test_scheduler_info_consistency00E0B1Z_
FN:59,_RNCINvMNtNtCs8c0sLc0b2ph_15webhook_gateway8services15token_schedulerNtB5_14TokenScheduler22start_scheduler_simpleNCNCNvNtNtNtCsgoC3FCBgbcl_3lib4unit8services26token_scheduler_edge_casess_36test_scheduler_config_extreme_values00E0B1Z_
FN:59,_RNCINvMNtNtCs8c0sLc0b2ph_15webhook_gateway8services15token_schedulerNtB5_14TokenScheduler22start_scheduler_simpleNCNCNvNtNtNtCsgoC3FCBgbcl_3lib4unit8services26token_scheduler_edge_casess_51test_scheduler_simple_vs_async_callback_equivalence00E0B1Z_
FN:59,_RNCINvMNtNtCs8c0sLc0b2ph_15webhook_gateway8services15token_schedulerNtB5_14TokenScheduler22start_scheduler_simpleNCNCNvNtNtNtCsgoC3FCBgbcl_3lib4unit8services26token_scheduler_edge_casess_51test_scheduler_update_config_during_active_schedule00E0B1Z_
FN:59,_RNCINvMNtNtCs8c0sLc0b2ph_15webhook_gateway8services15token_schedulerNtB5_14TokenScheduler22start_scheduler_simpleNCNCNvNtNtNtCsgoC3FCBgbcl_3lib4unit8services30token_scheduler_periodic_testss_32test_periodic_scheduler_shutdown00E0B1Z_
FN:59,_RNCINvMNtNtCs8c0sLc0b2ph_15webhook_gateway8services15token_schedulerNtB5_14TokenScheduler22start_scheduler_simpleNCNCNvNtNtNtCsgoC3FCBgbcl_3lib4unit8services30token_scheduler_periodic_testss_34test_periodic_scheduler_start_stop00E0B1Z_
FN:59,_RNCINvMNtNtCs8c0sLc0b2ph_15webhook_gateway8services15token_schedulerNtB5_14TokenScheduler22start_scheduler_simpleNCNCNvNtNtNtCsgoC3FCBgbcl_3lib4unit8services30token_scheduler_periodic_testss_35test_periodic_scheduler_replacement00E0B1Z_
FN:59,_RNCINvMNtNtCs8c0sLc0b2ph_15webhook_gateway8services15token_schedulerNtB5_14TokenScheduler22start_scheduler_simpleNCNCNvNtNtNtCsgoC3FCBgbcl_3lib4unit8services30token_scheduler_periodic_testss_35test_periodic_scheduler_replacement0s_0E0B1Z_
FN:59,_RNCINvMNtNtCs8c0sLc0b2ph_15webhook_gateway8services15token_schedulerNtB5_14TokenScheduler22start_scheduler_simpleNCNCNvNtNtNtCsgoC3FCBgbcl_3lib4unit8services30token_scheduler_periodic_testss_37test_periodic_scheduler_drop_behavior00E0B1Z_
FN:61,_RNCNCINvMNtNtCs8c0sLc0b2ph_15webhook_gateway8services15token_schedulerNtB7_14TokenScheduler22start_scheduler_simpleNCNCNCNvNtNtNtCsgoC3FCBgbcl_3lib4unit8services26token_scheduler_edge_casess_36test_concurrent_scheduler_operations000E00B23_
FN:61,_RNCNCINvMNtNtCs8c0sLc0b2ph_15webhook_gateway8services15token_schedulerNtB7_14TokenScheduler22start_scheduler_simpleNCNCNvNtNtNtCsgoC3FCBgbcl_3lib4unit8services21token_scheduler_testss_19test_scheduler_stop00E00B21_
FN:61,_RNCNCINvMNtNtCs8c0sLc0b2ph_15webhook_gateway8services15token_schedulerNtB7_14TokenScheduler22start_scheduler_simpleNCNCNvNtNtNtCsgoC3FCBgbcl_3lib4unit8services21token_scheduler_testss_23test_scheduler_shutdown00E00B21_
FN:61,_RNCNCINvMNtNtCs8c0sLc0b2ph_15webhook_gateway8services15token_schedulerNtB7_14TokenScheduler22start_scheduler_simpleNCNCNvNtNtNtCsgoC3FCBgbcl_3lib4unit8services21token_scheduler_testss_26test_scheduler_replacement00E00B21_
FN:61,_RNCNCINvMNtNtCs8c0sLc0b2ph_15webhook_gateway8services15token_schedulerNtB7_14TokenScheduler22start_scheduler_simpleNCNCNvNtNtNtCsgoC3FCBgbcl_3lib4unit8services21token_scheduler_testss_26test_scheduler_replacement0s_0E00B21_
FN:61,_RNCNCINvMNtNtCs8c0sLc0b2ph_15webhook_gateway8services15token_schedulerNtB7_14TokenScheduler22start_scheduler_simpleNCNCNvNtNtNtCsgoC3FCBgbcl_3lib4unit8services21token_scheduler_testss_32test_scheduler_config_validation00E00B21_
FN:61,_RNCNCINvMNtNtCs8c0sLc0b2ph_15webhook_gateway8services15token_schedulerNtB7_14TokenScheduler22start_scheduler_simpleNCNCNvNtNtNtCsgoC3FCBgbcl_3lib4unit8services26token_scheduler_edge_casess_31test_scheduler_info_consistency00E00B21_
FN:61,_RNCNCINvMNtNtCs8c0sLc0b2ph_15webhook_gateway8services15token_schedulerNtB7_14TokenScheduler22start_scheduler_simpleNCNCNvNtNtNtCsgoC3FCBgbcl_3lib4unit8services26token_scheduler_edge_casess_36test_scheduler_config_extreme_values00E00B21_
FN:61,_RNCNCINvMNtNtCs8c0sLc0b2ph_15webhook_gateway8services15token_schedulerNtB7_14TokenScheduler22start_scheduler_simpleNCNCNvNtNtNtCsgoC3FCBgbcl_3lib4unit8services26token_scheduler_edge_casess_51test_scheduler_simple_vs_async_callback_equivalence00E00B21_
FN:61,_RNCNCINvMNtNtCs8c0sLc0b2ph_15webhook_gateway8services15token_schedulerNtB7_14TokenScheduler22start_scheduler_simpleNCNCNvNtNtNtCsgoC3FCBgbcl_3lib4unit8services26token_scheduler_edge_casess_51test_scheduler_update_config_during_active_schedule00E00B21_
FN:61,_RNCNCINvMNtNtCs8c0sLc0b2ph_15webhook_gateway8services15token_schedulerNtB7_14TokenScheduler22start_scheduler_simpleNCNCNvNtNtNtCsgoC3FCBgbcl_3lib4unit8services30token_scheduler_periodic_testss_32test_periodic_scheduler_shutdown00E00B21_
FN:61,_RNCNCINvMNtNtCs8c0sLc0b2ph_15webhook_gateway8services15token_schedulerNtB7_14TokenScheduler22start_scheduler_simpleNCNCNvNtNtNtCsgoC3FCBgbcl_3lib4unit8services30token_scheduler_periodic_testss_34test_periodic_scheduler_start_stop00E00B21_
FN:61,_RNCNCINvMNtNtCs8c0sLc0b2ph_15webhook_gateway8services15token_schedulerNtB7_14TokenScheduler22start_scheduler_simpleNCNCNvNtNtNtCsgoC3FCBgbcl_3lib4unit8services30token_scheduler_periodic_testss_35test_periodic_scheduler_replacement00E00B21_
FN:61,_RNCNCINvMNtNtCs8c0sLc0b2ph_15webhook_gateway8services15token_schedulerNtB7_14TokenScheduler22start_scheduler_simpleNCNCNvNtNtNtCsgoC3FCBgbcl_3lib4unit8services30token_scheduler_periodic_testss_35test_periodic_scheduler_replacement0s_0E00B21_
FN:61,_RNCNCINvMNtNtCs8c0sLc0b2ph_15webhook_gateway8services15token_schedulerNtB7_14TokenScheduler22start_scheduler_simpleNCNCNvNtNtNtCsgoC3FCBgbcl_3lib4unit8services30token_scheduler_periodic_testss_37test_periodic_scheduler_drop_behavior00E00B21_
FN:35,_RINvMNtNtCs8c0sLc0b2ph_15webhook_gateway8services15token_schedulerNtB3_14TokenScheduler15start_schedulerNCINvB2_22start_scheduler_simpleNCNCNCNvNtNtCsbBJszbEvitB_10unit_tests8services26token_scheduler_edge_casess_36test_concurrent_scheduler_operations000E0NCNCB1G_00EB2m_
FN:35,_RINvMNtNtCs8c0sLc0b2ph_15webhook_gateway8services15token_schedulerNtB3_14TokenScheduler15start_schedulerNCINvB2_22start_scheduler_simpleNCNCNvNtNtCsbBJszbEvitB_10unit_tests8services21token_scheduler_testss_19test_scheduler_stop00E0NCNCB1G_00EB2k_
FN:35,_RINvMNtNtCs8c0sLc0b2ph_15webhook_gateway8services15token_schedulerNtB3_14TokenScheduler15start_schedulerNCINvB2_22start_scheduler_simpleNCNCNvNtNtCsbBJszbEvitB_10unit_tests8services21token_scheduler_testss_23test_scheduler_shutdown00E0NCNCB1G_00EB2k_
FN:35,_RINvMNtNtCs8c0sLc0b2ph_15webhook_gateway8services15token_schedulerNtB3_14TokenScheduler15start_schedulerNCINvB2_22start_scheduler_simpleNCNCNvNtNtCsbBJszbEvitB_10unit_tests8services21token_scheduler_testss_26test_scheduler_replacement00E0NCNCB1G_00EB2k_
FN:35,_RINvMNtNtCs8c0sLc0b2ph_15webhook_gateway8services15token_schedulerNtB3_14TokenScheduler15start_schedulerNCINvB2_22start_scheduler_simpleNCNCNvNtNtCsbBJszbEvitB_10unit_tests8services21token_scheduler_testss_26test_scheduler_replacement0s_0E0NCNCB1G_00EB2k_
FN:35,_RINvMNtNtCs8c0sLc0b2ph_15webhook_gateway8services15token_schedulerNtB3_14TokenScheduler15start_schedulerNCINvB2_22start_scheduler_simpleNCNCNvNtNtCsbBJszbEvitB_10unit_tests8services21token_scheduler_testss_32test_scheduler_config_validation00E0NCNCB1G_00EB2k_
FN:35,_RINvMNtNtCs8c0sLc0b2ph_15webhook_gateway8services15token_schedulerNtB3_14TokenScheduler15start_schedulerNCINvB2_22start_scheduler_simpleNCNCNvNtNtCsbBJszbEvitB_10unit_tests8services26token_scheduler_edge_casess_31test_scheduler_info_consistency00E0NCNCB1G_00EB2k_
FN:35,_RINvMNtNtCs8c0sLc0b2ph_15webhook_gateway8services15token_schedulerNtB3_14TokenScheduler15start_schedulerNCINvB2_22start_scheduler_simpleNCNCNvNtNtCsbBJszbEvitB_10unit_tests8services26token_scheduler_edge_casess_36test_scheduler_config_extreme_values00E0NCNCB1G_00EB2k_
FN:35,_RINvMNtNtCs8c0sLc0b2ph_15webhook_gateway8services15token_schedulerNtB3_14TokenScheduler15start_schedulerNCINvB2_22start_scheduler_simpleNCNCNvNtNtCsbBJszbEvitB_10unit_tests8services26token_scheduler_edge_casess_51test_scheduler_simple_vs_async_callback_equivalence00E0NCNCB1G_00EB2k_
FN:35,_RINvMNtNtCs8c0sLc0b2ph_15webhook_gateway8services15token_schedulerNtB3_14TokenScheduler15start_schedulerNCINvB2_22start_scheduler_simpleNCNCNvNtNtCsbBJszbEvitB_10unit_tests8services26token_scheduler_edge_casess_51test_scheduler_update_config_during_active_schedule00E0NCNCB1G_00EB2k_
FN:35,_RINvMNtNtCs8c0sLc0b2ph_15webhook_gateway8services15token_schedulerNtB3_14TokenScheduler15start_schedulerNCINvB2_22start_scheduler_simpleNCNCNvNtNtCsbBJszbEvitB_10unit_tests8services30token_scheduler_periodic_testss_32test_periodic_scheduler_shutdown00E0NCNCB1G_00EB2k_
FN:35,_RINvMNtNtCs8c0sLc0b2ph_15webhook_gateway8services15token_schedulerNtB3_14TokenScheduler15start_schedulerNCINvB2_22start_scheduler_simpleNCNCNvNtNtCsbBJszbEvitB_10unit_tests8services30token_scheduler_periodic_testss_34test_periodic_scheduler_start_stop00E0NCNCB1G_00EB2k_
FN:35,_RINvMNtNtCs8c0sLc0b2ph_15webhook_gateway8services15token_schedulerNtB3_14TokenScheduler15start_schedulerNCINvB2_22start_scheduler_simpleNCNCNvNtNtCsbBJszbEvitB_10unit_tests8services30token_scheduler_periodic_testss_35test_periodic_scheduler_replacement00E0NCNCB1G_00EB2k_
FN:35,_RINvMNtNtCs8c0sLc0b2ph_15webhook_gateway8services15token_schedulerNtB3_14TokenScheduler15start_schedulerNCINvB2_22start_scheduler_simpleNCNCNvNtNtCsbBJszbEvitB_10unit_tests8services30token_scheduler_periodic_testss_35test_periodic_scheduler_replacement0s_0E0NCNCB1G_00EB2k_
FN:35,_RINvMNtNtCs8c0sLc0b2ph_15webhook_gateway8services15token_schedulerNtB3_14TokenScheduler15start_schedulerNCINvB2_22start_scheduler_simpleNCNCNvNtNtCsbBJszbEvitB_10unit_tests8services30token_scheduler_periodic_testss_37test_periodic_scheduler_drop_behavior00E0NCNCB1G_00EB2k_
FN:35,_RINvMNtNtCs8c0sLc0b2ph_15webhook_gateway8services15token_schedulerNtB3_14TokenScheduler15start_schedulerNCNCNvNtNtCsbBJszbEvitB_10unit_tests8services26token_scheduler_edge_casess_28test_scheduler_drop_behavior00NCNCB1G_00EB1O_
FN:35,_RINvMNtNtCs8c0sLc0b2ph_15webhook_gateway8services15token_schedulerNtB3_14TokenScheduler15start_schedulerNCNCNvNtNtCsbBJszbEvitB_10unit_tests8services26token_scheduler_edge_casess_34test_multiple_rapid_schedule_calls00NCNCB1G_00EB1O_
FN:35,_RINvMNtNtCs8c0sLc0b2ph_15webhook_gateway8services15token_schedulerNtB3_14TokenScheduler15start_schedulerNCNCNvNtNtCsbBJszbEvitB_10unit_tests8services26token_scheduler_edge_casess_36test_scheduler_with_minimal_interval00NCNCB1G_00EB1O_
FN:35,_RINvMNtNtCs8c0sLc0b2ph_15webhook_gateway8services15token_schedulerNtB3_14TokenScheduler15start_schedulerNCNCNvNtNtCsbBJszbEvitB_10unit_tests8services26token_scheduler_edge_casess_38test_scheduler_callback_error_handling00NCNCB1G_00EB1O_
FN:35,_RINvMNtNtCs8c0sLc0b2ph_15webhook_gateway8services15token_schedulerNtB3_14TokenScheduler15start_schedulerNCNCNvNtNtCsbBJszbEvitB_10unit_tests8services26token_scheduler_edge_casess_51test_scheduler_simple_vs_async_callback_equivalence0s_0NCNCB1G_s_00EB1O_
FN:35,_RINvMNtNtCs8c0sLc0b2ph_15webhook_gateway8services15token_schedulerNtB3_14TokenScheduler15start_schedulerNCNCNvNtNtCsbBJszbEvitB_10unit_tests8services30token_scheduler_periodic_debugs_34test_scheduler_immediate_execution00NCNCB1G_00EB1O_
FN:35,_RINvMNtNtCs8c0sLc0b2ph_15webhook_gateway8services15token_schedulerNtB3_14TokenScheduler15start_schedulerNCNCNvNtNtCsbBJszbEvitB_10unit_tests8services30token_scheduler_periodic_debugs_34test_scheduler_runs_multiple_times00NCNCB1G_00EB1O_
FN:35,_RINvMNtNtCs8c0sLc0b2ph_15webhook_gateway8services15token_schedulerNtB3_14TokenScheduler15start_schedulerNCNCNvNtNtCsbBJszbEvitB_10unit_tests8services30token_scheduler_periodic_testss_38test_periodic_scheduler_async_callback00NCNCB1G_00EB1O_
FN:70,_RINvMNtNtCs8c0sLc0b2ph_15webhook_gateway8services15token_schedulerNtB3_14TokenScheduler19spawn_periodic_taskNCINvB2_22start_scheduler_simpleNCNCNCNvNtNtCsbBJszbEvitB_10unit_tests8services26token_scheduler_edge_casess_36test_concurrent_scheduler_operations000E0NCNCB1K_00EB2q_
FN:70,_RINvMNtNtCs8c0sLc0b2ph_15webhook_gateway8services15token_schedulerNtB3_14TokenScheduler19spawn_periodic_taskNCINvB2_22start_scheduler_simpleNCNCNvNtNtCsbBJszbEvitB_10unit_tests8services21token_scheduler_testss_19test_scheduler_stop00E0NCNCB1K_00EB2o_
FN:70,_RINvMNtNtCs8c0sLc0b2ph_15webhook_gateway8services15token_schedulerNtB3_14TokenScheduler19spawn_periodic_taskNCINvB2_22start_scheduler_simpleNCNCNvNtNtCsbBJszbEvitB_10unit_tests8services21token_scheduler_testss_23test_scheduler_shutdown00E0NCNCB1K_00EB2o_
FN:70,_RINvMNtNtCs8c0sLc0b2ph_15webhook_gateway8services15token_schedulerNtB3_14TokenScheduler19spawn_periodic_taskNCINvB2_22start_scheduler_simpleNCNCNvNtNtCsbBJszbEvitB_10unit_tests8services21token_scheduler_testss_26test_scheduler_replacement00E0NCNCB1K_00EB2o_
FN:70,_RINvMNtNtCs8c0sLc0b2ph_15webhook_gateway8services15token_schedulerNtB3_14TokenScheduler19spawn_periodic_taskNCINvB2_22start_scheduler_simpleNCNCNvNtNtCsbBJszbEvitB_10unit_tests8services21token_scheduler_testss_26test_scheduler_replacement0s_0E0NCNCB1K_00EB2o_
FN:70,_RINvMNtNtCs8c0sLc0b2ph_15webhook_gateway8services15token_schedulerNtB3_14TokenScheduler19spawn_periodic_taskNCINvB2_22start_scheduler_simpleNCNCNvNtNtCsbBJszbEvitB_10unit_tests8services21token_scheduler_testss_32test_scheduler_config_validation00E0NCNCB1K_00EB2o_
FN:70,_RINvMNtNtCs8c0sLc0b2ph_15webhook_gateway8services15token_schedulerNtB3_14TokenScheduler19spawn_periodic_taskNCINvB2_22start_scheduler_simpleNCNCNvNtNtCsbBJszbEvitB_10unit_tests8services26token_scheduler_edge_casess_31test_scheduler_info_consistency00E0NCNCB1K_00EB2o_
FN:70,_RINvMNtNtCs8c0sLc0b2ph_15webhook_gateway8services15token_schedulerNtB3_14TokenScheduler19spawn_periodic_taskNCINvB2_22start_scheduler_simpleNCNCNvNtNtCsbBJszbEvitB_10unit_tests8services26token_scheduler_edge_casess_36test_scheduler_config_extreme_values00E0NCNCB1K_00EB2o_
FN:70,_RINvMNtNtCs8c0sLc0b2ph_15webhook_gateway8services15token_schedulerNtB3_14TokenScheduler19spawn_periodic_taskNCINvB2_22start_scheduler_simpleNCNCNvNtNtCsbBJszbEvitB_10unit_tests8services26token_scheduler_edge_casess_51test_scheduler_simple_vs_async_callback_equivalence00E0NCNCB1K_00EB2o_
FN:70,_RINvMNtNtCs8c0sLc0b2ph_15webhook_gateway8services15token_schedulerNtB3_14TokenScheduler19spawn_periodic_taskNCINvB2_22start_scheduler_simpleNCNCNvNtNtCsbBJszbEvitB_10unit_tests8services26token_scheduler_edge_casess_51test_scheduler_update_config_during_active_schedule00E0NCNCB1K_00EB2o_
FN:70,_RINvMNtNtCs8c0sLc0b2ph_15webhook_gateway8services15token_schedulerNtB3_14TokenScheduler19spawn_periodic_taskNCINvB2_22start_scheduler_simpleNCNCNvNtNtCsbBJszbEvitB_10unit_tests8services30token_scheduler_periodic_testss_32test_periodic_scheduler_shutdown00E0NCNCB1K_00EB2o_
FN:70,_RINvMNtNtCs8c0sLc0b2ph_15webhook_gateway8services15token_schedulerNtB3_14TokenScheduler19spawn_periodic_taskNCINvB2_22start_scheduler_simpleNCNCNvNtNtCsbBJszbEvitB_10unit_tests8services30token_scheduler_periodic_testss_34test_periodic_scheduler_start_stop00E0NCNCB1K_00EB2o_
FN:70,_RINvMNtNtCs8c0sLc0b2ph_15webhook_gateway8services15token_schedulerNtB3_14TokenScheduler19spawn_periodic_taskNCINvB2_22start_scheduler_simpleNCNCNvNtNtCsbBJszbEvitB_10unit_tests8services30token_scheduler_periodic_testss_35test_periodic_scheduler_replacement00E0NCNCB1K_00EB2o_
FN:70,_RINvMNtNtCs8c0sLc0b2ph_15webhook_gateway8services15token_schedulerNtB3_14TokenScheduler19spawn_periodic_taskNCINvB2_22start_scheduler_simpleNCNCNvNtNtCsbBJszbEvitB_10unit_tests8services30token_scheduler_periodic_testss_35test_periodic_scheduler_replacement0s_0E0NCNCB1K_00EB2o_
FN:70,_RINvMNtNtCs8c0sLc0b2ph_15webhook_gateway8services15token_schedulerNtB3_14TokenScheduler19spawn_periodic_taskNCINvB2_22start_scheduler_simpleNCNCNvNtNtCsbBJszbEvitB_10unit_tests8services30token_scheduler_periodic_testss_37test_periodic_scheduler_drop_behavior00E0NCNCB1K_00EB2o_
FN:70,_RINvMNtNtCs8c0sLc0b2ph_15webhook_gateway8services15token_schedulerNtB3_14TokenScheduler19spawn_periodic_taskNCNCNvNtNtCsbBJszbEvitB_10unit_tests8services26token_scheduler_edge_casess_28test_scheduler_drop_behavior00NCNCB1K_00EB1S_
FN:70,_RINvMNtNtCs8c0sLc0b2ph_15webhook_gateway8services15token_schedulerNtB3_14TokenScheduler19spawn_periodic_taskNCNCNvNtNtCsbBJszbEvitB_10unit_tests8services26token_scheduler_edge_casess_34test_multiple_rapid_schedule_calls00NCNCB1K_00EB1S_
FN:70,_RINvMNtNtCs8c0sLc0b2ph_15webhook_gateway8services15token_schedulerNtB3_14TokenScheduler19spawn_periodic_taskNCNCNvNtNtCsbBJszbEvitB_10unit_tests8services26token_scheduler_edge_casess_36test_scheduler_with_minimal_interval00NCNCB1K_00EB1S_
FN:70,_RINvMNtNtCs8c0sLc0b2ph_15webhook_gateway8services15token_schedulerNtB3_14TokenScheduler19spawn_periodic_taskNCNCNvNtNtCsbBJszbEvitB_10unit_tests8services26token_scheduler_edge_casess_38test_scheduler_callback_error_handling00NCNCB1K_00EB1S_
FN:70,_RINvMNtNtCs8c0sLc0b2ph_15webhook_gateway8services15token_schedulerNtB3_14TokenScheduler19spawn_periodic_taskNCNCNvNtNtCsbBJszbEvitB_10unit_tests8services26token_scheduler_edge_casess_51test_scheduler_simple_vs_async_callback_equivalence0s_0NCNCB1K_s_00EB1S_
FN:70,_RINvMNtNtCs8c0sLc0b2ph_15webhook_gateway8services15token_schedulerNtB3_14TokenScheduler19spawn_periodic_taskNCNCNvNtNtCsbBJszbEvitB_10unit_tests8services30token_scheduler_periodic_debugs_34test_scheduler_immediate_execution00NCNCB1K_00EB1S_
FN:70,_RINvMNtNtCs8c0sLc0b2ph_15webhook_gateway8services15token_schedulerNtB3_14TokenScheduler19spawn_periodic_taskNCNCNvNtNtCsbBJszbEvitB_10unit_tests8services30token_scheduler_periodic_debugs_34test_scheduler_runs_multiple_times00NCNCB1K_00EB1S_
FN:70,_RINvMNtNtCs8c0sLc0b2ph_15webhook_gateway8services15token_schedulerNtB3_14TokenScheduler19spawn_periodic_taskNCNCNvNtNtCsbBJszbEvitB_10unit_tests8services30token_scheduler_periodic_testss_38test_periodic_scheduler_async_callback00NCNCB1K_00EB1S_
FN:54,_RINvMNtNtCs8c0sLc0b2ph_15webhook_gateway8services15token_schedulerNtB3_14TokenScheduler22start_scheduler_simpleNCNCNCNvNtNtCsbBJszbEvitB_10unit_tests8services26token_scheduler_edge_casess_36test_concurrent_scheduler_operations000EB1X_
FN:54,_RINvMNtNtCs8c0sLc0b2ph_15webhook_gateway8services15token_schedulerNtB3_14TokenScheduler22start_scheduler_simpleNCNCNvNtNtCsbBJszbEvitB_10unit_tests8services21token_scheduler_testss_19test_scheduler_stop00EB1V_
FN:54,_RINvMNtNtCs8c0sLc0b2ph_15webhook_gateway8services15token_schedulerNtB3_14TokenScheduler22start_scheduler_simpleNCNCNvNtNtCsbBJszbEvitB_10unit_tests8services21token_scheduler_testss_23test_scheduler_shutdown00EB1V_
FN:54,_RINvMNtNtCs8c0sLc0b2ph_15webhook_gateway8services15token_schedulerNtB3_14TokenScheduler22start_scheduler_simpleNCNCNvNtNtCsbBJszbEvitB_10unit_tests8services21token_scheduler_testss_26test_scheduler_replacement00EB1V_
FN:54,_RINvMNtNtCs8c0sLc0b2ph_15webhook_gateway8services15token_schedulerNtB3_14TokenScheduler22start_scheduler_simpleNCNCNvNtNtCsbBJszbEvitB_10unit_tests8services21token_scheduler_testss_26test_scheduler_replacement0s_0EB1V_
FN:54,_RINvMNtNtCs8c0sLc0b2ph_15webhook_gateway8services15token_schedulerNtB3_14TokenScheduler22start_scheduler_simpleNCNCNvNtNtCsbBJszbEvitB_10unit_tests8services21token_scheduler_testss_32test_scheduler_config_validation00EB1V_
FN:54,_RINvMNtNtCs8c0sLc0b2ph_15webhook_gateway8services15token_schedulerNtB3_14TokenScheduler22start_scheduler_simpleNCNCNvNtNtCsbBJszbEvitB_10unit_tests8services26token_scheduler_edge_casess_31test_scheduler_info_consistency00EB1V_
FN:54,_RINvMNtNtCs8c0sLc0b2ph_15webhook_gateway8services15token_schedulerNtB3_14TokenScheduler22start_scheduler_simpleNCNCNvNtNtCsbBJszbEvitB_10unit_tests8services26token_scheduler_edge_casess_36test_scheduler_config_extreme_values00EB1V_
FN:54,_RINvMNtNtCs8c0sLc0b2ph_15webhook_gateway8services15token_schedulerNtB3_14TokenScheduler22start_scheduler_simpleNCNCNvNtNtCsbBJszbEvitB_10unit_tests8services26token_scheduler_edge_casess_51test_scheduler_simple_vs_async_callback_equivalence00EB1V_
FN:54,_RINvMNtNtCs8c0sLc0b2ph_15webhook_gateway8services15token_schedulerNtB3_14TokenScheduler22start_scheduler_simpleNCNCNvNtNtCsbBJszbEvitB_10unit_tests8services26token_scheduler_edge_casess_51test_scheduler_update_config_during_active_schedule00EB1V_
FN:54,_RINvMNtNtCs8c0sLc0b2ph_15webhook_gateway8services15token_schedulerNtB3_14TokenScheduler22start_scheduler_simpleNCNCNvNtNtCsbBJszbEvitB_10unit_tests8services30token_scheduler_periodic_testss_32test_periodic_scheduler_shutdown00EB1V_
FN:54,_RINvMNtNtCs8c0sLc0b2ph_15webhook_gateway8services15token_schedulerNtB3_14TokenScheduler22start_scheduler_simpleNCNCNvNtNtCsbBJszbEvitB_10unit_tests8services30token_scheduler_periodic_testss_34test_periodic_scheduler_start_stop00EB1V_
FN:54,_RINvMNtNtCs8c0sLc0b2ph_15webhook_gateway8services15token_schedulerNtB3_14TokenScheduler22start_scheduler_simpleNCNCNvNtNtCsbBJszbEvitB_10unit_tests8services30token_scheduler_periodic_testss_35test_periodic_scheduler_replacement00EB1V_
FN:54,_RINvMNtNtCs8c0sLc0b2ph_15webhook_gateway8services15token_schedulerNtB3_14TokenScheduler22start_scheduler_simpleNCNCNvNtNtCsbBJszbEvitB_10unit_tests8services30token_scheduler_periodic_testss_35test_periodic_scheduler_replacement0s_0EB1V_
FN:54,_RINvMNtNtCs8c0sLc0b2ph_15webhook_gateway8services15token_schedulerNtB3_14TokenScheduler22start_scheduler_simpleNCNCNvNtNtCsbBJszbEvitB_10unit_tests8services30token_scheduler_periodic_testss_37test_periodic_scheduler_drop_behavior00EB1V_
FN:77,_RNCINvMNtNtCs8c0sLc0b2ph_15webhook_gateway8services15token_schedulerNtB5_14TokenScheduler19spawn_periodic_taskNCINvB4_22start_scheduler_simpleNCNCNCNvNtNtCsbBJszbEvitB_10unit_tests8services26token_scheduler_edge_casess_36test_concurrent_scheduler_operations000E0NCNCB1M_00E0B2s_
FN:77,_RNCINvMNtNtCs8c0sLc0b2ph_15webhook_gateway8services15token_schedulerNtB5_14TokenScheduler19spawn_periodic_taskNCINvB4_22start_scheduler_simpleNCNCNvNtNtCsbBJszbEvitB_10unit_tests8services21token_scheduler_testss_19test_scheduler_stop00E0NCNCB1M_00E0B2q_
FN:77,_RNCINvMNtNtCs8c0sLc0b2ph_15webhook_gateway8services15token_schedulerNtB5_14TokenScheduler19spawn_periodic_taskNCINvB4_22start_scheduler_simpleNCNCNvNtNtCsbBJszbEvitB_10unit_tests8services21token_scheduler_testss_23test_scheduler_shutdown00E0NCNCB1M_00E0B2q_
FN:77,_RNCINvMNtNtCs8c0sLc0b2ph_15webhook_gateway8services15token_schedulerNtB5_14TokenScheduler19spawn_periodic_taskNCINvB4_22start_scheduler_simpleNCNCNvNtNtCsbBJszbEvitB_10unit_tests8services21token_scheduler_testss_26test_scheduler_replacement00E0NCNCB1M_00E0B2q_
FN:77,_RNCINvMNtNtCs8c0sLc0b2ph_15webhook_gateway8services15token_schedulerNtB5_14TokenScheduler19spawn_periodic_taskNCINvB4_22start_scheduler_simpleNCNCNvNtNtCsbBJszbEvitB_10unit_tests8services21token_scheduler_testss_26test_scheduler_replacement0s_0E0NCNCB1M_00E0B2q_
FN:77,_RNCINvMNtNtCs8c0sLc0b2ph_15webhook_gateway8services15token_schedulerNtB5_14TokenScheduler19spawn_periodic_taskNCINvB4_22start_scheduler_simpleNCNCNvNtNtCsbBJszbEvitB_10unit_tests8services21token_scheduler_testss_32test_scheduler_config_validation00E0NCNCB1M_00E0B2q_
FN:77,_RNCINvMNtNtCs8c0sLc0b2ph_15webhook_gateway8services15token_schedulerNtB5_14TokenScheduler19spawn_periodic_taskNCINvB4_22start_scheduler_simpleNCNCNvNtNtCsbBJszbEvitB_10unit_tests8services26token_scheduler_edge_casess_31test_scheduler_info_consistency00E0NCNCB1M_00E0B2q_
FN:77,_RNCINvMNtNtCs8c0sLc0b2ph_15webhook_gateway8services15token_schedulerNtB5_14TokenScheduler19spawn_periodic_taskNCINvB4_22start_scheduler_simpleNCNCNvNtNtCsbBJszbEvitB_10unit_tests8services26token_scheduler_edge_casess_36test_scheduler_config_extreme_values00E0NCNCB1M_00E0B2q_
FN:77,_RNCINvMNtNtCs8c0sLc0b2ph_15webhook_gateway8services15token_schedulerNtB5_14TokenScheduler19spawn_periodic_taskNCINvB4_22start_scheduler_simpleNCNCNvNtNtCsbBJszbEvitB_10unit_tests8services26token_scheduler_edge_casess_51test_scheduler_simple_vs_async_callback_equivalence00E0NCNCB1M_00E0B2q_
FN:77,_RNCINvMNtNtCs8c0sLc0b2ph_15webhook_gateway8services15token_schedulerNtB5_14TokenScheduler19spawn_periodic_taskNCINvB4_22start_scheduler_simpleNCNCNvNtNtCsbBJszbEvitB_10unit_tests8services26token_scheduler_edge_casess_51test_scheduler_update_config_during_active_schedule00E0NCNCB1M_00E0B2q_
FN:77,_RNCINvMNtNtCs8c0sLc0b2ph_15webhook_gateway8services15token_schedulerNtB5_14TokenScheduler19spawn_periodic_taskNCINvB4_22start_scheduler_simpleNCNCNvNtNtCsbBJszbEvitB_10unit_tests8services30token_scheduler_periodic_testss_32test_periodic_scheduler_shutdown00E0NCNCB1M_00E0B2q_
FN:77,_RNCINvMNtNtCs8c0sLc0b2ph_15webhook_gateway8services15token_schedulerNtB5_14TokenScheduler19spawn_periodic_taskNCINvB4_22start_scheduler_simpleNCNCNvNtNtCsbBJszbEvitB_10unit_tests8services30token_scheduler_periodic_testss_34test_periodic_scheduler_start_stop00E0NCNCB1M_00E0B2q_
FN:77,_RNCINvMNtNtCs8c0sLc0b2ph_15webhook_gateway8services15token_schedulerNtB5_14TokenScheduler19spawn_periodic_taskNCINvB4_22start_scheduler_simpleNCNCNvNtNtCsbBJszbEvitB_10unit_tests8services30token_scheduler_periodic_testss_35test_periodic_scheduler_replacement00E0NCNCB1M_00E0B2q_
FN:77,_RNCINvMNtNtCs8c0sLc0b2ph_15webhook_gateway8services15token_schedulerNtB5_14TokenScheduler19spawn_periodic_taskNCINvB4_22start_scheduler_simpleNCNCNvNtNtCsbBJszbEvitB_10unit_tests8services30token_scheduler_periodic_testss_35test_periodic_scheduler_replacement0s_0E0NCNCB1M_00E0B2q_
FN:77,_RNCINvMNtNtCs8c0sLc0b2ph_15webhook_gateway8services15token_schedulerNtB5_14TokenScheduler19spawn_periodic_taskNCINvB4_22start_scheduler_simpleNCNCNvNtNtCsbBJszbEvitB_10unit_tests8services30token_scheduler_periodic_testss_37test_periodic_scheduler_drop_behavior00E0NCNCB1M_00E0B2q_
FN:77,_RNCINvMNtNtCs8c0sLc0b2ph_15webhook_gateway8services15token_schedulerNtB5_14TokenScheduler19spawn_periodic_taskNCNCNvNtNtCsbBJszbEvitB_10unit_tests8services26token_scheduler_edge_casess_28test_scheduler_drop_behavior00NCNCB1M_00E0B1U_
FN:77,_RNCINvMNtNtCs8c0sLc0b2ph_15webhook_gateway8services15token_schedulerNtB5_14TokenScheduler19spawn_periodic_taskNCNCNvNtNtCsbBJszbEvitB_10unit_tests8services26token_scheduler_edge_casess_34test_multiple_rapid_schedule_calls00NCNCB1M_00E0B1U_
FN:77,_RNCINvMNtNtCs8c0sLc0b2ph_15webhook_gateway8services15token_schedulerNtB5_14TokenScheduler19spawn_periodic_taskNCNCNvNtNtCsbBJszbEvitB_10unit_tests8services26token_scheduler_edge_casess_36test_scheduler_with_minimal_interval00NCNCB1M_00E0B1U_
FN:77,_RNCINvMNtNtCs8c0sLc0b2ph_15webhook_gateway8services15token_schedulerNtB5_14TokenScheduler19spawn_periodic_taskNCNCNvNtNtCsbBJszbEvitB_10unit_tests8services26token_scheduler_edge_casess_38test_scheduler_callback_error_handling00NCNCB1M_00E0B1U_
FN:77,_RNCINvMNtNtCs8c0sLc0b2ph_15webhook_gateway8services15token_schedulerNtB5_14TokenScheduler19spawn_periodic_taskNCNCNvNtNtCsbBJszbEvitB_10unit_tests8services26token_scheduler_edge_casess_51test_scheduler_simple_vs_async_callback_equivalence0s_0NCNCB1M_s_00E0B1U_
FN:77,_RNCINvMNtNtCs8c0sLc0b2ph_15webhook_gateway8services15token_schedulerNtB5_14TokenScheduler19spawn_periodic_taskNCNCNvNtNtCsbBJszbEvitB_10unit_tests8services30token_scheduler_periodic_debugs_34test_scheduler_immediate_execution00NCNCB1M_00E0B1U_
FN:77,_RNCINvMNtNtCs8c0sLc0b2ph_15webhook_gateway8services15token_schedulerNtB5_14TokenScheduler19spawn_periodic_taskNCNCNvNtNtCsbBJszbEvitB_10unit_tests8services30token_scheduler_periodic_debugs_34test_scheduler_runs_multiple_times00NCNCB1M_00E0B1U_
FN:77,_RNCINvMNtNtCs8c0sLc0b2ph_15webhook_gateway8services15token_schedulerNtB5_14TokenScheduler19spawn_periodic_taskNCNCNvNtNtCsbBJszbEvitB_10unit_tests8services30token_scheduler_periodic_testss_38test_periodic_scheduler_async_callback00NCNCB1M_00E0B1U_
FN:59,_RNCINvMNtNtCs8c0sLc0b2ph_15webhook_gateway8services15token_schedulerNtB5_14TokenScheduler22start_scheduler_simpleNCNCNCNvNtNtCsbBJszbEvitB_10unit_tests8services26token_scheduler_edge_casess_36test_concurrent_scheduler_operations000E0B1Z_
FN:59,_RNCINvMNtNtCs8c0sLc0b2ph_15webhook_gateway8services15token_schedulerNtB5_14TokenScheduler22start_scheduler_simpleNCNCNvNtNtCsbBJszbEvitB_10unit_tests8services21token_scheduler_testss_19test_scheduler_stop00E0B1X_
FN:59,_RNCINvMNtNtCs8c0sLc0b2ph_15webhook_gateway8services15token_schedulerNtB5_14TokenScheduler22start_scheduler_simpleNCNCNvNtNtCsbBJszbEvitB_10unit_tests8services21token_scheduler_testss_23test_scheduler_shutdown00E0B1X_
FN:59,_RNCINvMNtNtCs8c0sLc0b2ph_15webhook_gateway8services15token_schedulerNtB5_14TokenScheduler22start_scheduler_simpleNCNCNvNtNtCsbBJszbEvitB_10unit_tests8services21token_scheduler_testss_26test_scheduler_replacement00E0B1X_
FN:59,_RNCINvMNtNtCs8c0sLc0b2ph_15webhook_gateway8services15token_schedulerNtB5_14TokenScheduler22start_scheduler_simpleNCNCNvNtNtCsbBJszbEvitB_10unit_tests8services21token_scheduler_testss_26test_scheduler_replacement0s_0E0B1X_
FN:59,_RNCINvMNtNtCs8c0sLc0b2ph_15webhook_gateway8services15token_schedulerNtB5_14TokenScheduler22start_scheduler_simpleNCNCNvNtNtCsbBJszbEvitB_10unit_tests8services21token_scheduler_testss_32test_scheduler_config_validation00E0B1X_
FN:59,_RNCINvMNtNtCs8c0sLc0b2ph_15webhook_gateway8services15token_schedulerNtB5_14TokenScheduler22start_scheduler_simpleNCNCNvNtNtCsbBJszbEvitB_10unit_tests8services26token_scheduler_edge_casess_31test_scheduler_info_consistency00E0B1X_
FN:59,_RNCINvMNtNtCs8c0sLc0b2ph_15webhook_gateway8services15token_schedulerNtB5_14TokenScheduler22start_scheduler_simpleNCNCNvNtNtCsbBJszbEvitB_10unit_tests8services26token_scheduler_edge_casess_36test_scheduler_config_extreme_values00E0B1X_
FN:59,_RNCINvMNtNtCs8c0sLc0b2ph_15webhook_gateway8services15token_schedulerNtB5_14TokenScheduler22start_scheduler_simpleNCNCNvNtNtCsbBJszbEvitB_10unit_tests8services26token_scheduler_edge_casess_51test_scheduler_simple_vs_async_callback_equivalence00E0B1X_
FN:59,_RNCINvMNtNtCs8c0sLc0b2ph_15webhook_gateway8services15token_schedulerNtB5_14TokenScheduler22start_scheduler_simpleNCNCNvNtNtCsbBJszbEvitB_10unit_tests8services26token_scheduler_edge_casess_51test_scheduler_update_config_during_active_schedule00E0B1X_
FN:59,_RNCINvMNtNtCs8c0sLc0b2ph_15webhook_gateway8services15token_schedulerNtB5_14TokenScheduler22start_scheduler_simpleNCNCNvNtNtCsbBJszbEvitB_10unit_tests8services30token_scheduler_periodic_testss_32test_periodic_scheduler_shutdown00E0B1X_
FN:59,_RNCINvMNtNtCs8c0sLc0b2ph_15webhook_gateway8services15token_schedulerNtB5_14TokenScheduler22start_scheduler_simpleNCNCNvNtNtCsbBJszbEvitB_10unit_tests8services30token_scheduler_periodic_testss_34test_periodic_scheduler_start_stop00E0B1X_
FN:59,_RNCINvMNtNtCs8c0sLc0b2ph_15webhook_gateway8services15token_schedulerNtB5_14TokenScheduler22start_scheduler_simpleNCNCNvNtNtCsbBJszbEvitB_10unit_tests8services30token_scheduler_periodic_testss_35test_periodic_scheduler_replacement00E0B1X_
FN:59,_RNCINvMNtNtCs8c0sLc0b2ph_15webhook_gateway8services15token_schedulerNtB5_14TokenScheduler22start_scheduler_simpleNCNCNvNtNtCsbBJszbEvitB_10unit_tests8services30token_scheduler_periodic_testss_35test_periodic_scheduler_replacement0s_0E0B1X_
FN:59,_RNCINvMNtNtCs8c0sLc0b2ph_15webhook_gateway8services15token_schedulerNtB5_14TokenScheduler22start_scheduler_simpleNCNCNvNtNtCsbBJszbEvitB_10unit_tests8services30token_scheduler_periodic_testss_37test_periodic_scheduler_drop_behavior00E0B1X_
FN:61,_RNCNCINvMNtNtCs8c0sLc0b2ph_15webhook_gateway8services15token_schedulerNtB7_14TokenScheduler22start_scheduler_simpleNCNCNCNvNtNtCsbBJszbEvitB_10unit_tests8services26token_scheduler_edge_casess_36test_concurrent_scheduler_operations000E00B21_
FN:61,_RNCNCINvMNtNtCs8c0sLc0b2ph_15webhook_gateway8services15token_schedulerNtB7_14TokenScheduler22start_scheduler_simpleNCNCNvNtNtCsbBJszbEvitB_10unit_tests8services21token_scheduler_testss_19test_scheduler_stop00E00B1Z_
FN:61,_RNCNCINvMNtNtCs8c0sLc0b2ph_15webhook_gateway8services15token_schedulerNtB7_14TokenScheduler22start_scheduler_simpleNCNCNvNtNtCsbBJszbEvitB_10unit_tests8services21token_scheduler_testss_23test_scheduler_shutdown00E00B1Z_
FN:61,_RNCNCINvMNtNtCs8c0sLc0b2ph_15webhook_gateway8services15token_schedulerNtB7_14TokenScheduler22start_scheduler_simpleNCNCNvNtNtCsbBJszbEvitB_10unit_tests8services21token_scheduler_testss_26test_scheduler_replacement00E00B1Z_
FN:61,_RNCNCINvMNtNtCs8c0sLc0b2ph_15webhook_gateway8services15token_schedulerNtB7_14TokenScheduler22start_scheduler_simpleNCNCNvNtNtCsbBJszbEvitB_10unit_tests8services21token_scheduler_testss_26test_scheduler_replacement0s_0E00B1Z_
FN:61,_RNCNCINvMNtNtCs8c0sLc0b2ph_15webhook_gateway8services15token_schedulerNtB7_14TokenScheduler22start_scheduler_simpleNCNCNvNtNtCsbBJszbEvitB_10unit_tests8services21token_scheduler_testss_32test_scheduler_config_validation00E00B1Z_
FN:61,_RNCNCINvMNtNtCs8c0sLc0b2ph_15webhook_gateway8services15token_schedulerNtB7_14TokenScheduler22start_scheduler_simpleNCNCNvNtNtCsbBJszbEvitB_10unit_tests8services26token_scheduler_edge_casess_31test_scheduler_info_consistency00E00B1Z_
FN:61,_RNCNCINvMNtNtCs8c0sLc0b2ph_15webhook_gateway8services15token_schedulerNtB7_14TokenScheduler22start_scheduler_simpleNCNCNvNtNtCsbBJszbEvitB_10unit_tests8services26token_scheduler_edge_casess_36test_scheduler_config_extreme_values00E00B1Z_
FN:61,_RNCNCINvMNtNtCs8c0sLc0b2ph_15webhook_gateway8services15token_schedulerNtB7_14TokenScheduler22start_scheduler_simpleNCNCNvNtNtCsbBJszbEvitB_10unit_tests8services26token_scheduler_edge_casess_51test_scheduler_simple_vs_async_callback_equivalence00E00B1Z_
FN:61,_RNCNCINvMNtNtCs8c0sLc0b2ph_15webhook_gateway8services15token_schedulerNtB7_14TokenScheduler22start_scheduler_simpleNCNCNvNtNtCsbBJszbEvitB_10unit_tests8services26token_scheduler_edge_casess_51test_scheduler_update_config_during_active_schedule00E00B1Z_
FN:61,_RNCNCINvMNtNtCs8c0sLc0b2ph_15webhook_gateway8services15token_schedulerNtB7_14TokenScheduler22start_scheduler_simpleNCNCNvNtNtCsbBJszbEvitB_10unit_tests8services30token_scheduler_periodic_testss_32test_periodic_scheduler_shutdown00E00B1Z_
FN:61,_RNCNCINvMNtNtCs8c0sLc0b2ph_15webhook_gateway8services15token_schedulerNtB7_14TokenScheduler22start_scheduler_simpleNCNCNvNtNtCsbBJszbEvitB_10unit_tests8services30token_scheduler_periodic_testss_34test_periodic_scheduler_start_stop00E00B1Z_
FN:61,_RNCNCINvMNtNtCs8c0sLc0b2ph_15webhook_gateway8services15token_schedulerNtB7_14TokenScheduler22start_scheduler_simpleNCNCNvNtNtCsbBJszbEvitB_10unit_tests8services30token_scheduler_periodic_testss_35test_periodic_scheduler_replacement00E00B1Z_
FN:61,_RNCNCINvMNtNtCs8c0sLc0b2ph_15webhook_gateway8services15token_schedulerNtB7_14TokenScheduler22start_scheduler_simpleNCNCNvNtNtCsbBJszbEvitB_10unit_tests8services30token_scheduler_periodic_testss_35test_periodic_scheduler_replacement0s_0E00B1Z_
FN:61,_RNCNCINvMNtNtCs8c0sLc0b2ph_15webhook_gateway8services15token_schedulerNtB7_14TokenScheduler22start_scheduler_simpleNCNCNvNtNtCsbBJszbEvitB_10unit_tests8services30token_scheduler_periodic_testss_37test_periodic_scheduler_drop_behavior00E00B1Z_
FN:35,_RINvMNtNtCsf025XZeElGg_15webhook_gateway8services15token_schedulerNtB3_14TokenScheduler15start_schedulerppEB7_
FN:70,_RINvMNtNtCsf025XZeElGg_15webhook_gateway8services15token_schedulerNtB3_14TokenScheduler19spawn_periodic_taskppEB7_
FN:54,_RINvMNtNtCsf025XZeElGg_15webhook_gateway8services15token_schedulerNtB3_14TokenScheduler22start_scheduler_simplepEB7_
FN:77,_RNCINvMNtNtCsf025XZeElGg_15webhook_gateway8services15token_schedulerNtB5_14TokenScheduler19spawn_periodic_taskppE0B9_
FN:59,_RNCINvMNtNtCsf025XZeElGg_15webhook_gateway8services15token_schedulerNtB5_14TokenScheduler22start_scheduler_simplepE0B9_
FN:61,_RNCNCINvMNtNtCsf025XZeElGg_15webhook_gateway8services15token_schedulerNtB7_14TokenScheduler22start_scheduler_simplepE00Bb_
FN:167,_RNvMNtNtCsf025XZeElGg_15webhook_gateway8services15token_schedulerNtB2_14TokenScheduler10get_config
FN:27,_RNvMNtNtCsf025XZeElGg_15webhook_gateway8services15token_schedulerNtB2_14TokenScheduler11with_config
FN:172,_RNvMNtNtCsf025XZeElGg_15webhook_gateway8services15token_schedulerNtB2_14TokenScheduler13update_config
FN:135,_RNvMNtNtCsf025XZeElGg_15webhook_gateway8services15token_schedulerNtB2_14TokenScheduler14stop_scheduler
FN:155,_RNvMNtNtCsf025XZeElGg_15webhook_gateway8services15token_schedulerNtB2_14TokenScheduler18get_scheduler_info
FN:149,_RNvMNtNtCsf025XZeElGg_15webhook_gateway8services15token_schedulerNtB2_14TokenScheduler19is_scheduler_active
FN:21,_RNvMNtNtCsf025XZeElGg_15webhook_gateway8services15token_schedulerNtB2_14TokenScheduler3new
FN:177,_RNvMNtNtCsf025XZeElGg_15webhook_gateway8services15token_schedulerNtB2_14TokenScheduler8shutdown
FN:195,_RNvXs0_NtNtCsf025XZeElGg_15webhook_gateway8services15token_schedulerNtB5_14TokenSchedulerNtNtNtCsixiwFwjEgS7_4core3ops4drop4Drop4drop
FN:189,_RNvXs_NtNtCsf025XZeElGg_15webhook_gateway8services15token_schedulerNtB4_14TokenSchedulerNtNtCsixiwFwjEgS7_4core7default7Default7default
FNDA:240,_RNvXs0_NtNtCs8c0sLc0b2ph_15webhook_gateway8services15token_schedulerNtB5_14TokenSchedulerNtNtNtCsixiwFwjEgS7_4core3ops4drop4Drop4drop
FNDA:0,_RINvMNtNtCs8c0sLc0b2ph_15webhook_gateway8services15token_schedulerNtB3_14TokenScheduler22start_scheduler_simplepEB7_
FNDA:0,_RNCINvMNtNtCs8c0sLc0b2ph_15webhook_gateway8services15token_schedulerNtB5_14TokenScheduler22start_scheduler_simplepE0B9_
FNDA:0,_RNCNCINvMNtNtCs8c0sLc0b2ph_15webhook_gateway8services15token_schedulerNtB7_14TokenScheduler22start_scheduler_simplepE00Bb_
FNDA:68,_RINvMNtNtCs8c0sLc0b2ph_15webhook_gateway8services15token_schedulerNtB3_14TokenScheduler15start_schedulerNCNvMNtB5_13permata_loginNtB1J_12LoginHandler28start_periodic_token_refresh0NCNCB1G_00EB7_
FNDA:68,_RINvMNtNtCs8c0sLc0b2ph_15webhook_gateway8services15token_schedulerNtB3_14TokenScheduler19spawn_periodic_taskNCNvMNtB5_13permata_loginNtB1N_12LoginHandler28start_periodic_token_refresh0NCNCB1K_00EB7_
FNDA:46,_RNCINvMNtNtCs8c0sLc0b2ph_15webhook_gateway8services15token_schedulerNtB5_14TokenScheduler19spawn_periodic_taskNCNvMNtB7_13permata_loginNtB1P_12LoginHandler28start_periodic_token_refresh0NCNCB1M_00E0B9_
FNDA:20,_RNvMNtNtCs8c0sLc0b2ph_15webhook_gateway8services15token_schedulerNtB2_14TokenScheduler10get_config
FNDA:124,_RNvMNtNtCs8c0sLc0b2ph_15webhook_gateway8services15token_schedulerNtB2_14TokenScheduler11with_config
FNDA:4,_RNvMNtNtCs8c0sLc0b2ph_15webhook_gateway8services15token_schedulerNtB2_14TokenScheduler13update_config
FNDA:204,_RNvMNtNtCs8c0sLc0b2ph_15webhook_gateway8services15token_schedulerNtB2_14TokenScheduler14stop_scheduler
FNDA:22,_RNvMNtNtCs8c0sLc0b2ph_15webhook_gateway8services15token_schedulerNtB2_14TokenScheduler18get_scheduler_info
FNDA:108,_RNvMNtNtCs8c0sLc0b2ph_15webhook_gateway8services15token_schedulerNtB2_14TokenScheduler19is_scheduler_active
FNDA:20,_RNvMNtNtCs8c0sLc0b2ph_15webhook_gateway8services15token_schedulerNtB2_14TokenScheduler3new
FNDA:32,_RNvMNtNtCs8c0sLc0b2ph_15webhook_gateway8services15token_schedulerNtB2_14TokenScheduler8shutdown
FNDA:0,_RNvXs_NtNtCs8c0sLc0b2ph_15webhook_gateway8services15token_schedulerNtB4_14TokenSchedulerNtNtCsixiwFwjEgS7_4core7default7Default7default
FNDA:3,_RINvMNtNtCs8c0sLc0b2ph_15webhook_gateway8services15token_schedulerNtB3_14TokenScheduler15start_schedulerNCINvB2_22start_scheduler_simpleNCNCNCNvNtNtNtCsgoC3FCBgbcl_3lib4unit8services26token_scheduler_edge_casess_36test_concurrent_scheduler_operations000E0NCNCB1G_00EB2o_
FNDA:1,_RINvMNtNtCs8c0sLc0b2ph_15webhook_gateway8services15token_schedulerNtB3_14TokenScheduler15start_schedulerNCINvB2_22start_scheduler_simpleNCNCNvNtNtNtCsgoC3FCBgbcl_3lib4unit8services21token_scheduler_testss_19test_scheduler_stop00E0NCNCB1G_00EB2m_
FNDA:1,_RINvMNtNtCs8c0sLc0b2ph_15webhook_gateway8services15token_schedulerNtB3_14TokenScheduler15start_schedulerNCINvB2_22start_scheduler_simpleNCNCNvNtNtNtCsgoC3FCBgbcl_3lib4unit8services21token_scheduler_testss_23test_scheduler_shutdown00E0NCNCB1G_00EB2m_
FNDA:1,_RINvMNtNtCs8c0sLc0b2ph_15webhook_gateway8services15token_schedulerNtB3_14TokenScheduler15start_schedulerNCINvB2_22start_scheduler_simpleNCNCNvNtNtNtCsgoC3FCBgbcl_3lib4unit8services21token_scheduler_testss_26test_scheduler_replacement00E0NCNCB1G_00EB2m_
FNDA:1,_RINvMNtNtCs8c0sLc0b2ph_15webhook_gateway8services15token_schedulerNtB3_14TokenScheduler15start_schedulerNCINvB2_22start_scheduler_simpleNCNCNvNtNtNtCsgoC3FCBgbcl_3lib4unit8services21token_scheduler_testss_26test_scheduler_replacement0s_0E0NCNCB1G_00EB2m_
FNDA:1,_RINvMNtNtCs8c0sLc0b2ph_15webhook_gateway8services15token_schedulerNtB3_14TokenScheduler15start_schedulerNCINvB2_22start_scheduler_simpleNCNCNvNtNtNtCsgoC3FCBgbcl_3lib4unit8services21token_scheduler_testss_32test_scheduler_config_validation00E0NCNCB1G_00EB2m_
FNDA:1,_RINvMNtNtCs8c0sLc0b2ph_15webhook_gateway8services15token_schedulerNtB3_14TokenScheduler15start_schedulerNCINvB2_22start_scheduler_simpleNCNCNvNtNtNtCsgoC3FCBgbcl_3lib4unit8services26token_scheduler_edge_casess_31test_scheduler_info_consistency00E0NCNCB1G_00EB2m_
FNDA:1,_RINvMNtNtCs8c0sLc0b2ph_15webhook_gateway8services15token_schedulerNtB3_14TokenScheduler15start_schedulerNCINvB2_22start_scheduler_simpleNCNCNvNtNtNtCsgoC3FCBgbcl_3lib4unit8services26token_scheduler_edge_casess_36test_scheduler_config_extreme_values00E0NCNCB1G_00EB2m_
FNDA:1,_RINvMNtNtCs8c0sLc0b2ph_15webhook_gateway8services15token_schedulerNtB3_14TokenScheduler15start_schedulerNCINvB2_22start_scheduler_simpleNCNCNvNtNtNtCsgoC3FCBgbcl_3lib4unit8services26token_scheduler_edge_casess_51test_scheduler_simple_vs_async_callback_equivalence00E0NCNCB1G_00EB2m_
FNDA:1,_RINvMNtNtCs8c0sLc0b2ph_15webhook_gateway8services15token_schedulerNtB3_14TokenScheduler15start_schedulerNCINvB2_22start_scheduler_simpleNCNCNvNtNtNtCsgoC3FCBgbcl_3lib4unit8services26token_scheduler_edge_casess_51test_scheduler_update_config_during_active_schedule00E0NCNCB1G_00EB2m_
FNDA:1,_RINvMNtNtCs8c0sLc0b2ph_15webhook_gateway8services15token_schedulerNtB3_14TokenScheduler15start_schedulerNCINvB2_22start_scheduler_simpleNCNCNvNtNtNtCsgoC3FCBgbcl_3lib4unit8services30token_scheduler_periodic_testss_32test_periodic_scheduler_shutdown00E0NCNCB1G_00EB2m_
FNDA:1,_RINvMNtNtCs8c0sLc0b2ph_15webhook_gateway8services15token_schedulerNtB3_14TokenScheduler15start_schedulerNCINvB2_22start_scheduler_simpleNCNCNvNtNtNtCsgoC3FCBgbcl_3lib4unit8services30token_scheduler_periodic_testss_34test_periodic_scheduler_start_stop00E0NCNCB1G_00EB2m_
FNDA:1,_RINvMNtNtCs8c0sLc0b2ph_15webhook_gateway8services15token_schedulerNtB3_14TokenScheduler15start_schedulerNCINvB2_22start_scheduler_simpleNCNCNvNtNtNtCsgoC3FCBgbcl_3lib4unit8services30token_scheduler_periodic_testss_35test_periodic_scheduler_replacement00E0NCNCB1G_00EB2m_
FNDA:1,_RINvMNtNtCs8c0sLc0b2ph_15webhook_gateway8services15token_schedulerNtB3_14TokenScheduler15start_schedulerNCINvB2_22start_scheduler_simpleNCNCNvNtNtNtCsgoC3FCBgbcl_3lib4unit8services30token_scheduler_periodic_testss_35test_periodic_scheduler_replacement0s_0E0NCNCB1G_00EB2m_
FNDA:1,_RINvMNtNtCs8c0sLc0b2ph_15webhook_gateway8services15token_schedulerNtB3_14TokenScheduler15start_schedulerNCINvB2_22start_scheduler_simpleNCNCNvNtNtNtCsgoC3FCBgbcl_3lib4unit8services30token_scheduler_periodic_testss_37test_periodic_scheduler_drop_behavior00E0NCNCB1G_00EB2m_
FNDA:1,_RINvMNtNtCs8c0sLc0b2ph_15webhook_gateway8services15token_schedulerNtB3_14TokenScheduler15start_schedulerNCNCNvNtNtNtCsgoC3FCBgbcl_3lib4unit8services26token_scheduler_edge_casess_28test_scheduler_drop_behavior00NCNCB1G_00EB1Q_
FNDA:10,_RINvMNtNtCs8c0sLc0b2ph_15webhook_gateway8services15token_schedulerNtB3_14TokenScheduler15start_schedulerNCNCNvNtNtNtCsgoC3FCBgbcl_3lib4unit8services26token_scheduler_edge_casess_34test_multiple_rapid_schedule_calls00NCNCB1G_00EB1Q_
FNDA:1,_RINvMNtNtCs8c0sLc0b2ph_15webhook_gateway8services15token_schedulerNtB3_14TokenScheduler15start_schedulerNCNCNvNtNtNtCsgoC3FCBgbcl_3lib4unit8services26token_scheduler_edge_casess_36test_scheduler_with_minimal_interval00NCNCB1G_00EB1Q_
FNDA:1,_RINvMNtNtCs8c0sLc0b2ph_15webhook_gateway8services15token_schedulerNtB3_14TokenScheduler15start_schedulerNCNCNvNtNtNtCsgoC3FCBgbcl_3lib4unit8services26token_scheduler_edge_casess_38test_scheduler_callback_error_handling00NCNCB1G_00EB1Q_
FNDA:1,_RINvMNtNtCs8c0sLc0b2ph_15webhook_gateway8services15token_schedulerNtB3_14TokenScheduler15start_schedulerNCNCNvNtNtNtCsgoC3FCBgbcl_3lib4unit8services26token_scheduler_edge_casess_51test_scheduler_simple_vs_async_callback_equivalence0s_0NCNCB1G_s_00EB1Q_
FNDA:1,_RINvMNtNtCs8c0sLc0b2ph_15webhook_gateway8services15token_schedulerNtB3_14TokenScheduler15start_schedulerNCNCNvNtNtNtCsgoC3FCBgbcl_3lib4unit8services30token_scheduler_periodic_debugs_34test_scheduler_immediate_execution00NCNCB1G_00EB1Q_
FNDA:1,_RINvMNtNtCs8c0sLc0b2ph_15webhook_gateway8services15token_schedulerNtB3_14TokenScheduler15start_schedulerNCNCNvNtNtNtCsgoC3FCBgbcl_3lib4unit8services30token_scheduler_periodic_debugs_34test_scheduler_runs_multiple_times00NCNCB1G_00EB1Q_
FNDA:1,_RINvMNtNtCs8c0sLc0b2ph_15webhook_gateway8services15token_schedulerNtB3_14TokenScheduler15start_schedulerNCNCNvNtNtNtCsgoC3FCBgbcl_3lib4unit8services30token_scheduler_periodic_testss_38test_periodic_scheduler_async_callback00NCNCB1G_00EB1Q_
FNDA:3,_RINvMNtNtCs8c0sLc0b2ph_15webhook_gateway8services15token_schedulerNtB3_14TokenScheduler19spawn_periodic_taskNCINvB2_22start_scheduler_simpleNCNCNCNvNtNtNtCsgoC3FCBgbcl_3lib4unit8services26token_scheduler_edge_casess_36test_concurrent_scheduler_operations000E0NCNCB1K_00EB2s_
FNDA:1,_RINvMNtNtCs8c0sLc0b2ph_15webhook_gateway8services15token_schedulerNtB3_14TokenScheduler19spawn_periodic_taskNCINvB2_22start_scheduler_simpleNCNCNvNtNtNtCsgoC3FCBgbcl_3lib4unit8services21token_scheduler_testss_19test_scheduler_stop00E0NCNCB1K_00EB2q_
FNDA:1,_RINvMNtNtCs8c0sLc0b2ph_15webhook_gateway8services15token_schedulerNtB3_14TokenScheduler19spawn_periodic_taskNCINvB2_22start_scheduler_simpleNCNCNvNtNtNtCsgoC3FCBgbcl_3lib4unit8services21token_scheduler_testss_23test_scheduler_shutdown00E0NCNCB1K_00EB2q_
FNDA:1,_RINvMNtNtCs8c0sLc0b2ph_15webhook_gateway8services15token_schedulerNtB3_14TokenScheduler19spawn_periodic_taskNCINvB2_22start_scheduler_simpleNCNCNvNtNtNtCsgoC3FCBgbcl_3lib4unit8services21token_scheduler_testss_26test_scheduler_replacement00E0NCNCB1K_00EB2q_
FNDA:1,_RINvMNtNtCs8c0sLc0b2ph_15webhook_gateway8services15token_schedulerNtB3_14TokenScheduler19spawn_periodic_taskNCINvB2_22start_scheduler_simpleNCNCNvNtNtNtCsgoC3FCBgbcl_3lib4unit8services21token_scheduler_testss_26test_scheduler_replacement0s_0E0NCNCB1K_00EB2q_
FNDA:1,_RINvMNtNtCs8c0sLc0b2ph_15webhook_gateway8services15token_schedulerNtB3_14TokenScheduler19spawn_periodic_taskNCINvB2_22start_scheduler_simpleNCNCNvNtNtNtCsgoC3FCBgbcl_3lib4unit8services21token_scheduler_testss_32test_scheduler_config_validation00E0NCNCB1K_00EB2q_
FNDA:1,_RINvMNtNtCs8c0sLc0b2ph_15webhook_gateway8services15token_schedulerNtB3_14TokenScheduler19spawn_periodic_taskNCINvB2_22start_scheduler_simpleNCNCNvNtNtNtCsgoC3FCBgbcl_3lib4unit8services26token_scheduler_edge_casess_31test_scheduler_info_consistency00E0NCNCB1K_00EB2q_
FNDA:1,_RINvMNtNtCs8c0sLc0b2ph_15webhook_gateway8services15token_schedulerNtB3_14TokenScheduler19spawn_periodic_taskNCINvB2_22start_scheduler_simpleNCNCNvNtNtNtCsgoC3FCBgbcl_3lib4unit8services26token_scheduler_edge_casess_36test_scheduler_config_extreme_values00E0NCNCB1K_00EB2q_
FNDA:1,_RINvMNtNtCs8c0sLc0b2ph_15webhook_gateway8services15token_schedulerNtB3_14TokenScheduler19spawn_periodic_taskNCINvB2_22start_scheduler_simpleNCNCNvNtNtNtCsgoC3FCBgbcl_3lib4unit8services26token_scheduler_edge_casess_51test_scheduler_simple_vs_async_callback_equivalence00E0NCNCB1K_00EB2q_
FNDA:1,_RINvMNtNtCs8c0sLc0b2ph_15webhook_gateway8services15token_schedulerNtB3_14TokenScheduler19spawn_periodic_taskNCINvB2_22start_scheduler_simpleNCNCNvNtNtNtCsgoC3FCBgbcl_3lib4unit8services26token_scheduler_edge_casess_51test_scheduler_update_config_during_active_schedule00E0NCNCB1K_00EB2q_
FNDA:1,_RINvMNtNtCs8c0sLc0b2ph_15webhook_gateway8services15token_schedulerNtB3_14TokenScheduler19spawn_periodic_taskNCINvB2_22start_scheduler_simpleNCNCNvNtNtNtCsgoC3FCBgbcl_3lib4unit8services30token_scheduler_periodic_testss_32test_periodic_scheduler_shutdown00E0NCNCB1K_00EB2q_
FNDA:1,_RINvMNtNtCs8c0sLc0b2ph_15webhook_gateway8services15token_schedulerNtB3_14TokenScheduler19spawn_periodic_taskNCINvB2_22start_scheduler_simpleNCNCNvNtNtNtCsgoC3FCBgbcl_3lib4unit8services30token_scheduler_periodic_testss_34test_periodic_scheduler_start_stop00E0NCNCB1K_00EB2q_
FNDA:1,_RINvMNtNtCs8c0sLc0b2ph_15webhook_gateway8services15token_schedulerNtB3_14TokenScheduler19spawn_periodic_taskNCINvB2_22start_scheduler_simpleNCNCNvNtNtNtCsgoC3FCBgbcl_3lib4unit8services30token_scheduler_periodic_testss_35test_periodic_scheduler_replacement00E0NCNCB1K_00EB2q_
FNDA:1,_RINvMNtNtCs8c0sLc0b2ph_15webhook_gateway8services15token_schedulerNtB3_14TokenScheduler19spawn_periodic_taskNCINvB2_22start_scheduler_simpleNCNCNvNtNtNtCsgoC3FCBgbcl_3lib4unit8services30token_scheduler_periodic_testss_35test_periodic_scheduler_replacement0s_0E0NCNCB1K_00EB2q_
FNDA:1,_RINvMNtNtCs8c0sLc0b2ph_15webhook_gateway8services15token_schedulerNtB3_14TokenScheduler19spawn_periodic_taskNCINvB2_22start_scheduler_simpleNCNCNvNtNtNtCsgoC3FCBgbcl_3lib4unit8services30token_scheduler_periodic_testss_37test_periodic_scheduler_drop_behavior00E0NCNCB1K_00EB2q_
FNDA:1,_RINvMNtNtCs8c0sLc0b2ph_15webhook_gateway8services15token_schedulerNtB3_14TokenScheduler19spawn_periodic_taskNCNCNvNtNtNtCsgoC3FCBgbcl_3lib4unit8services26token_scheduler_edge_casess_28test_scheduler_drop_behavior00NCNCB1K_00EB1U_
FNDA:10,_RINvMNtNtCs8c0sLc0b2ph_15webhook_gateway8services15token_schedulerNtB3_14TokenScheduler19spawn_periodic_taskNCNCNvNtNtNtCsgoC3FCBgbcl_3lib4unit8services26token_scheduler_edge_casess_34test_multiple_rapid_schedule_calls00NCNCB1K_00EB1U_
FNDA:1,_RINvMNtNtCs8c0sLc0b2ph_15webhook_gateway8services15token_schedulerNtB3_14TokenScheduler19spawn_periodic_taskNCNCNvNtNtNtCsgoC3FCBgbcl_3lib4unit8services26token_scheduler_edge_casess_36test_scheduler_with_minimal_interval00NCNCB1K_00EB1U_
FNDA:1,_RINvMNtNtCs8c0sLc0b2ph_15webhook_gateway8services15token_schedulerNtB3_14TokenScheduler19spawn_periodic_taskNCNCNvNtNtNtCsgoC3FCBgbcl_3lib4unit8services26token_scheduler_edge_casess_38test_scheduler_callback_error_handling00NCNCB1K_00EB1U_
FNDA:1,_RINvMNtNtCs8c0sLc0b2ph_15webhook_gateway8services15token_schedulerNtB3_14TokenScheduler19spawn_periodic_taskNCNCNvNtNtNtCsgoC3FCBgbcl_3lib4unit8services26token_scheduler_edge_casess_51test_scheduler_simple_vs_async_callback_equivalence0s_0NCNCB1K_s_00EB1U_
FNDA:1,_RINvMNtNtCs8c0sLc0b2ph_15webhook_gateway8services15token_schedulerNtB3_14TokenScheduler19spawn_periodic_taskNCNCNvNtNtNtCsgoC3FCBgbcl_3lib4unit8services30token_scheduler_periodic_debugs_34test_scheduler_immediate_execution00NCNCB1K_00EB1U_
FNDA:1,_RINvMNtNtCs8c0sLc0b2ph_15webhook_gateway8services15token_schedulerNtB3_14TokenScheduler19spawn_periodic_taskNCNCNvNtNtNtCsgoC3FCBgbcl_3lib4unit8services30token_scheduler_periodic_debugs_34test_scheduler_runs_multiple_times00NCNCB1K_00EB1U_
FNDA:1,_RINvMNtNtCs8c0sLc0b2ph_15webhook_gateway8services15token_schedulerNtB3_14TokenScheduler19spawn_periodic_taskNCNCNvNtNtNtCsgoC3FCBgbcl_3lib4unit8services30token_scheduler_periodic_testss_38test_periodic_scheduler_async_callback00NCNCB1K_00EB1U_
FNDA:3,_RINvMNtNtCs8c0sLc0b2ph_15webhook_gateway8services15token_schedulerNtB3_14TokenScheduler22start_scheduler_simpleNCNCNCNvNtNtNtCsgoC3FCBgbcl_3lib4unit8services26token_scheduler_edge_casess_36test_concurrent_scheduler_operations000EB1Z_
FNDA:1,_RINvMNtNtCs8c0sLc0b2ph_15webhook_gateway8services15token_schedulerNtB3_14TokenScheduler22start_scheduler_simpleNCNCNvNtNtNtCsgoC3FCBgbcl_3lib4unit8services21token_scheduler_testss_19test_scheduler_stop00EB1X_
FNDA:1,_RINvMNtNtCs8c0sLc0b2ph_15webhook_gateway8services15token_schedulerNtB3_14TokenScheduler22start_scheduler_simpleNCNCNvNtNtNtCsgoC3FCBgbcl_3lib4unit8services21token_scheduler_testss_23test_scheduler_shutdown00EB1X_
FNDA:1,_RINvMNtNtCs8c0sLc0b2ph_15webhook_gateway8services15token_schedulerNtB3_14TokenScheduler22start_scheduler_simpleNCNCNvNtNtNtCsgoC3FCBgbcl_3lib4unit8services21token_scheduler_testss_26test_scheduler_replacement00EB1X_
FNDA:1,_RINvMNtNtCs8c0sLc0b2ph_15webhook_gateway8services15token_schedulerNtB3_14TokenScheduler22start_scheduler_simpleNCNCNvNtNtNtCsgoC3FCBgbcl_3lib4unit8services21token_scheduler_testss_26test_scheduler_replacement0s_0EB1X_
FNDA:1,_RINvMNtNtCs8c0sLc0b2ph_15webhook_gateway8services15token_schedulerNtB3_14TokenScheduler22start_scheduler_simpleNCNCNvNtNtNtCsgoC3FCBgbcl_3lib4unit8services21token_scheduler_testss_32test_scheduler_config_validation00EB1X_
FNDA:1,_RINvMNtNtCs8c0sLc0b2ph_15webhook_gateway8services15token_schedulerNtB3_14TokenScheduler22start_scheduler_simpleNCNCNvNtNtNtCsgoC3FCBgbcl_3lib4unit8services26token_scheduler_edge_casess_31test_scheduler_info_consistency00EB1X_
FNDA:1,_RINvMNtNtCs8c0sLc0b2ph_15webhook_gateway8services15token_schedulerNtB3_14TokenScheduler22start_scheduler_simpleNCNCNvNtNtNtCsgoC3FCBgbcl_3lib4unit8services26token_scheduler_edge_casess_36test_scheduler_config_extreme_values00EB1X_
FNDA:1,_RINvMNtNtCs8c0sLc0b2ph_15webhook_gateway8services15token_schedulerNtB3_14TokenScheduler22start_scheduler_simpleNCNCNvNtNtNtCsgoC3FCBgbcl_3lib4unit8services26token_scheduler_edge_casess_51test_scheduler_simple_vs_async_callback_equivalence00EB1X_
FNDA:1,_RINvMNtNtCs8c0sLc0b2ph_15webhook_gateway8services15token_schedulerNtB3_14TokenScheduler22start_scheduler_simpleNCNCNvNtNtNtCsgoC3FCBgbcl_3lib4unit8services26token_scheduler_edge_casess_51test_scheduler_update_config_during_active_schedule00EB1X_
FNDA:1,_RINvMNtNtCs8c0sLc0b2ph_15webhook_gateway8services15token_schedulerNtB3_14TokenScheduler22start_scheduler_simpleNCNCNvNtNtNtCsgoC3FCBgbcl_3lib4unit8services30token_scheduler_periodic_testss_32test_periodic_scheduler_shutdown00EB1X_
FNDA:1,_RINvMNtNtCs8c0sLc0b2ph_15webhook_gateway8services15token_schedulerNtB3_14TokenScheduler22start_scheduler_simpleNCNCNvNtNtNtCsgoC3FCBgbcl_3lib4unit8services30token_scheduler_periodic_testss_34test_periodic_scheduler_start_stop00EB1X_
FNDA:1,_RINvMNtNtCs8c0sLc0b2ph_15webhook_gateway8services15token_schedulerNtB3_14TokenScheduler22start_scheduler_simpleNCNCNvNtNtNtCsgoC3FCBgbcl_3lib4unit8services30token_scheduler_periodic_testss_35test_periodic_scheduler_replacement00EB1X_
FNDA:1,_RINvMNtNtCs8c0sLc0b2ph_15webhook_gateway8services15token_schedulerNtB3_14TokenScheduler22start_scheduler_simpleNCNCNvNtNtNtCsgoC3FCBgbcl_3lib4unit8services30token_scheduler_periodic_testss_35test_periodic_scheduler_replacement0s_0EB1X_
FNDA:1,_RINvMNtNtCs8c0sLc0b2ph_15webhook_gateway8services15token_schedulerNtB3_14TokenScheduler22start_scheduler_simpleNCNCNvNtNtNtCsgoC3FCBgbcl_3lib4unit8services30token_scheduler_periodic_testss_37test_periodic_scheduler_drop_behavior00EB1X_
FNDA:1,_RNCINvMNtNtCs8c0sLc0b2ph_15webhook_gateway8services15token_schedulerNtB5_14TokenScheduler19spawn_periodic_taskNCINvB4_22start_scheduler_simpleNCNCNCNvNtNtNtCsgoC3FCBgbcl_3lib4unit8services26token_scheduler_edge_casess_36test_concurrent_scheduler_operations000E0NCNCB1M_00E0B2u_
FNDA:0,_RNCINvMNtNtCs8c0sLc0b2ph_15webhook_gateway8services15token_schedulerNtB5_14TokenScheduler19spawn_periodic_taskNCINvB4_22start_scheduler_simpleNCNCNvNtNtNtCsgoC3FCBgbcl_3lib4unit8services21token_scheduler_testss_19test_scheduler_stop00E0NCNCB1M_00E0B2s_
FNDA:0,_RNCINvMNtNtCs8c0sLc0b2ph_15webhook_gateway8services15token_schedulerNtB5_14TokenScheduler19spawn_periodic_taskNCINvB4_22start_scheduler_simpleNCNCNvNtNtNtCsgoC3FCBgbcl_3lib4unit8services21token_scheduler_testss_23test_scheduler_shutdown00E0NCNCB1M_00E0B2s_
FNDA:0,_RNCINvMNtNtCs8c0sLc0b2ph_15webhook_gateway8services15token_schedulerNtB5_14TokenScheduler19spawn_periodic_taskNCINvB4_22start_scheduler_simpleNCNCNvNtNtNtCsgoC3FCBgbcl_3lib4unit8services21token_scheduler_testss_26test_scheduler_replacement00E0NCNCB1M_00E0B2s_
FNDA:0,_RNCINvMNtNtCs8c0sLc0b2ph_15webhook_gateway8services15token_schedulerNtB5_14TokenScheduler19spawn_periodic_taskNCINvB4_22start_scheduler_simpleNCNCNvNtNtNtCsgoC3FCBgbcl_3lib4unit8services21token_scheduler_testss_26test_scheduler_replacement0s_0E0NCNCB1M_00E0B2s_
FNDA:0,_RNCINvMNtNtCs8c0sLc0b2ph_15webhook_gateway8services15token_schedulerNtB5_14TokenScheduler19spawn_periodic_taskNCINvB4_22start_scheduler_simpleNCNCNvNtNtNtCsgoC3FCBgbcl_3lib4unit8services21token_scheduler_testss_32test_scheduler_config_validation00E0NCNCB1M_00E0B2s_
FNDA:0,_RNCINvMNtNtCs8c0sLc0b2ph_15webhook_gateway8services15token_schedulerNtB5_14TokenScheduler19spawn_periodic_taskNCINvB4_22start_scheduler_simpleNCNCNvNtNtNtCsgoC3FCBgbcl_3lib4unit8services26token_scheduler_edge_casess_31test_scheduler_info_consistency00E0NCNCB1M_00E0B2s_
FNDA:0,_RNCINvMNtNtCs8c0sLc0b2ph_15webhook_gateway8services15token_schedulerNtB5_14TokenScheduler19spawn_periodic_taskNCINvB4_22start_scheduler_simpleNCNCNvNtNtNtCsgoC3FCBgbcl_3lib4unit8services26token_scheduler_edge_casess_36test_scheduler_config_extreme_values00E0NCNCB1M_00E0B2s_
FNDA:0,_RNCINvMNtNtCs8c0sLc0b2ph_15webhook_gateway8services15token_schedulerNtB5_14TokenScheduler19spawn_periodic_taskNCINvB4_22start_scheduler_simpleNCNCNvNtNtNtCsgoC3FCBgbcl_3lib4unit8services26token_scheduler_edge_casess_51test_scheduler_simple_vs_async_callback_equivalence00E0NCNCB1M_00E0B2s_
FNDA:0,_RNCINvMNtNtCs8c0sLc0b2ph_15webhook_gateway8services15token_schedulerNtB5_14TokenScheduler19spawn_periodic_taskNCINvB4_22start_scheduler_simpleNCNCNvNtNtNtCsgoC3FCBgbcl_3lib4unit8services26token_scheduler_edge_casess_51test_scheduler_update_config_during_active_schedule00E0NCNCB1M_00E0B2s_
FNDA:0,_RNCINvMNtNtCs8c0sLc0b2ph_15webhook_gateway8services15token_schedulerNtB5_14TokenScheduler19spawn_periodic_taskNCINvB4_22start_scheduler_simpleNCNCNvNtNtNtCsgoC3FCBgbcl_3lib4unit8services30token_scheduler_periodic_testss_32test_periodic_scheduler_shutdown00E0NCNCB1M_00E0B2s_
FNDA:0,_RNCINvMNtNtCs8c0sLc0b2ph_15webhook_gateway8services15token_schedulerNtB5_14TokenScheduler19spawn_periodic_taskNCINvB4_22start_scheduler_simpleNCNCNvNtNtNtCsgoC3FCBgbcl_3lib4unit8services30token_scheduler_periodic_testss_34test_periodic_scheduler_start_stop00E0NCNCB1M_00E0B2s_
FNDA:0,_RNCINvMNtNtCs8c0sLc0b2ph_15webhook_gateway8services15token_schedulerNtB5_14TokenScheduler19spawn_periodic_taskNCINvB4_22start_scheduler_simpleNCNCNvNtNtNtCsgoC3FCBgbcl_3lib4unit8services30token_scheduler_periodic_testss_35test_periodic_scheduler_replacement00E0NCNCB1M_00E0B2s_
FNDA:0,_RNCINvMNtNtCs8c0sLc0b2ph_15webhook_gateway8services15token_schedulerNtB5_14TokenScheduler19spawn_periodic_taskNCINvB4_22start_scheduler_simpleNCNCNvNtNtNtCsgoC3FCBgbcl_3lib4unit8services30token_scheduler_periodic_testss_35test_periodic_scheduler_replacement0s_0E0NCNCB1M_00E0B2s_
FNDA:1,_RNCINvMNtNtCs8c0sLc0b2ph_15webhook_gateway8services15token_schedulerNtB5_14TokenScheduler19spawn_periodic_taskNCINvB4_22start_scheduler_simpleNCNCNvNtNtNtCsgoC3FCBgbcl_3lib4unit8services30token_scheduler_periodic_testss_37test_periodic_scheduler_drop_behavior00E0NCNCB1M_00E0B2s_
FNDA:1,_RNCINvMNtNtCs8c0sLc0b2ph_15webhook_gateway8services15token_schedulerNtB5_14TokenScheduler19spawn_periodic_taskNCNCNvNtNtNtCsgoC3FCBgbcl_3lib4unit8services26token_scheduler_edge_casess_28test_scheduler_drop_behavior00NCNCB1M_00E0B1W_
FNDA:0,_RNCINvMNtNtCs8c0sLc0b2ph_15webhook_gateway8services15token_schedulerNtB5_14TokenScheduler19spawn_periodic_taskNCNCNvNtNtNtCsgoC3FCBgbcl_3lib4unit8services26token_scheduler_edge_casess_34test_multiple_rapid_schedule_calls00NCNCB1M_00E0B1W_
FNDA:0,_RNCINvMNtNtCs8c0sLc0b2ph_15webhook_gateway8services15token_schedulerNtB5_14TokenScheduler19spawn_periodic_taskNCNCNvNtNtNtCsgoC3FCBgbcl_3lib4unit8services26token_scheduler_edge_casess_36test_scheduler_with_minimal_interval00NCNCB1M_00E0B1W_
FNDA:1,_RNCINvMNtNtCs8c0sLc0b2ph_15webhook_gateway8services15token_schedulerNtB5_14TokenScheduler19spawn_periodic_taskNCNCNvNtNtNtCsgoC3FCBgbcl_3lib4unit8services26token_scheduler_edge_casess_38test_scheduler_callback_error_handling00NCNCB1M_00E0B1W_
FNDA:0,_RNCINvMNtNtCs8c0sLc0b2ph_15webhook_gateway8services15token_schedulerNtB5_14TokenScheduler19spawn_periodic_taskNCNCNvNtNtNtCsgoC3FCBgbcl_3lib4unit8services26token_scheduler_edge_casess_51test_scheduler_simple_vs_async_callback_equivalence0s_0NCNCB1M_s_00E0B1W_
FNDA:1,_RNCINvMNtNtCs8c0sLc0b2ph_15webhook_gateway8services15token_schedulerNtB5_14TokenScheduler19spawn_periodic_taskNCNCNvNtNtNtCsgoC3FCBgbcl_3lib4unit8services30token_scheduler_periodic_debugs_34test_scheduler_immediate_execution00NCNCB1M_00E0B1W_
FNDA:1,_RNCINvMNtNtCs8c0sLc0b2ph_15webhook_gateway8services15token_schedulerNtB5_14TokenScheduler19spawn_periodic_taskNCNCNvNtNtNtCsgoC3FCBgbcl_3lib4unit8services30token_scheduler_periodic_debugs_34test_scheduler_runs_multiple_times00NCNCB1M_00E0B1W_
FNDA:0,_RNCINvMNtNtCs8c0sLc0b2ph_15webhook_gateway8services15token_schedulerNtB5_14TokenScheduler19spawn_periodic_taskNCNCNvNtNtNtCsgoC3FCBgbcl_3lib4unit8services30token_scheduler_periodic_testss_38test_periodic_scheduler_async_callback00NCNCB1M_00E0B1W_
FNDA:0,_RNCINvMNtNtCs8c0sLc0b2ph_15webhook_gateway8services15token_schedulerNtB5_14TokenScheduler22start_scheduler_simpleNCNCNCNvNtNtNtCsgoC3FCBgbcl_3lib4unit8services26token_scheduler_edge_casess_36test_concurrent_scheduler_operations000E0B21_
FNDA:0,_RNCINvMNtNtCs8c0sLc0b2ph_15webhook_gateway8services15token_schedulerNtB5_14TokenScheduler22start_scheduler_simpleNCNCNvNtNtNtCsgoC3FCBgbcl_3lib4unit8services21token_scheduler_testss_19test_scheduler_stop00E0B1Z_
FNDA:0,_RNCINvMNtNtCs8c0sLc0b2ph_15webhook_gateway8services15token_schedulerNtB5_14TokenScheduler22start_scheduler_simpleNCNCNvNtNtNtCsgoC3FCBgbcl_3lib4unit8services21token_scheduler_testss_23test_scheduler_shutdown00E0B1Z_
FNDA:0,_RNCINvMNtNtCs8c0sLc0b2ph_15webhook_gateway8services15token_schedulerNtB5_14TokenScheduler22start_scheduler_simpleNCNCNvNtNtNtCsgoC3FCBgbcl_3lib4unit8services21token_scheduler_testss_26test_scheduler_replacement00E0B1Z_
FNDA:0,_RNCINvMNtNtCs8c0sLc0b2ph_15webhook_gateway8services15token_schedulerNtB5_14TokenScheduler22start_scheduler_simpleNCNCNvNtNtNtCsgoC3FCBgbcl_3lib4unit8services21token_scheduler_testss_26test_scheduler_replacement0s_0E0B1Z_
FNDA:0,_RNCINvMNtNtCs8c0sLc0b2ph_15webhook_gateway8services15token_schedulerNtB5_14TokenScheduler22start_scheduler_simpleNCNCNvNtNtNtCsgoC3FCBgbcl_3lib4unit8services21token_scheduler_testss_32test_scheduler_config_validation00E0B1Z_
FNDA:0,_RNCINvMNtNtCs8c0sLc0b2ph_15webhook_gateway8services15token_schedulerNtB5_14TokenScheduler22start_scheduler_simpleNCNCNvNtNtNtCsgoC3FCBgbcl_3lib4unit8services26token_scheduler_edge_casess_31test_scheduler_info_consistency00E0B1Z_
FNDA:0,_RNCINvMNtNtCs8c0sLc0b2ph_15webhook_gateway8services15token_schedulerNtB5_14TokenScheduler22start_scheduler_simpleNCNCNvNtNtNtCsgoC3FCBgbcl_3lib4unit8services26token_scheduler_edge_casess_36test_scheduler_config_extreme_values00E0B1Z_
FNDA:0,_RNCINvMNtNtCs8c0sLc0b2ph_15webhook_gateway8services15token_schedulerNtB5_14TokenScheduler22start_scheduler_simpleNCNCNvNtNtNtCsgoC3FCBgbcl_3lib4unit8services26token_scheduler_edge_casess_51test_scheduler_simple_vs_async_callback_equivalence00E0B1Z_
FNDA:0,_RNCINvMNtNtCs8c0sLc0b2ph_15webhook_gateway8services15token_schedulerNtB5_14TokenScheduler22start_scheduler_simpleNCNCNvNtNtNtCsgoC3FCBgbcl_3lib4unit8services26token_scheduler_edge_casess_51test_scheduler_update_config_during_active_schedule00E0B1Z_
FNDA:0,_RNCINvMNtNtCs8c0sLc0b2ph_15webhook_gateway8services15token_schedulerNtB5_14TokenScheduler22start_scheduler_simpleNCNCNvNtNtNtCsgoC3FCBgbcl_3lib4unit8services30token_scheduler_periodic_testss_32test_periodic_scheduler_shutdown00E0B1Z_
FNDA:0,_RNCINvMNtNtCs8c0sLc0b2ph_15webhook_gateway8services15token_schedulerNtB5_14TokenScheduler22start_scheduler_simpleNCNCNvNtNtNtCsgoC3FCBgbcl_3lib4unit8services30token_scheduler_periodic_testss_34test_periodic_scheduler_start_stop00E0B1Z_
FNDA:0,_RNCINvMNtNtCs8c0sLc0b2ph_15webhook_gateway8services15token_schedulerNtB5_14TokenScheduler22start_scheduler_simpleNCNCNvNtNtNtCsgoC3FCBgbcl_3lib4unit8services30token_scheduler_periodic_testss_35test_periodic_scheduler_replacement00E0B1Z_
FNDA:0,_RNCINvMNtNtCs8c0sLc0b2ph_15webhook_gateway8services15token_schedulerNtB5_14TokenScheduler22start_scheduler_simpleNCNCNvNtNtNtCsgoC3FCBgbcl_3lib4unit8services30token_scheduler_periodic_testss_35test_periodic_scheduler_replacement0s_0E0B1Z_
FNDA:1,_RNCINvMNtNtCs8c0sLc0b2ph_15webhook_gateway8services15token_schedulerNtB5_14TokenScheduler22start_scheduler_simpleNCNCNvNtNtNtCsgoC3FCBgbcl_3lib4unit8services30token_scheduler_periodic_testss_37test_periodic_scheduler_drop_behavior00E0B1Z_
FNDA:0,_RNCNCINvMNtNtCs8c0sLc0b2ph_15webhook_gateway8services15token_schedulerNtB7_14TokenScheduler22start_scheduler_simpleNCNCNCNvNtNtNtCsgoC3FCBgbcl_3lib4unit8services26token_scheduler_edge_casess_36test_concurrent_scheduler_operations000E00B23_
FNDA:0,_RNCNCINvMNtNtCs8c0sLc0b2ph_15webhook_gateway8services15token_schedulerNtB7_14TokenScheduler22start_scheduler_simpleNCNCNvNtNtNtCsgoC3FCBgbcl_3lib4unit8services21token_scheduler_testss_19test_scheduler_stop00E00B21_
FNDA:0,_RNCNCINvMNtNtCs8c0sLc0b2ph_15webhook_gateway8services15token_schedulerNtB7_14TokenScheduler22start_scheduler_simpleNCNCNvNtNtNtCsgoC3FCBgbcl_3lib4unit8services21token_scheduler_testss_23test_scheduler_shutdown00E00B21_
FNDA:0,_RNCNCINvMNtNtCs8c0sLc0b2ph_15webhook_gateway8services15token_schedulerNtB7_14TokenScheduler22start_scheduler_simpleNCNCNvNtNtNtCsgoC3FCBgbcl_3lib4unit8services21token_scheduler_testss_26test_scheduler_replacement00E00B21_
FNDA:0,_RNCNCINvMNtNtCs8c0sLc0b2ph_15webhook_gateway8services15token_schedulerNtB7_14TokenScheduler22start_scheduler_simpleNCNCNvNtNtNtCsgoC3FCBgbcl_3lib4unit8services21token_scheduler_testss_26test_scheduler_replacement0s_0E00B21_
FNDA:0,_RNCNCINvMNtNtCs8c0sLc0b2ph_15webhook_gateway8services15token_schedulerNtB7_14TokenScheduler22start_scheduler_simpleNCNCNvNtNtNtCsgoC3FCBgbcl_3lib4unit8services21token_scheduler_testss_32test_scheduler_config_validation00E00B21_
FNDA:0,_RNCNCINvMNtNtCs8c0sLc0b2ph_15webhook_gateway8services15token_schedulerNtB7_14TokenScheduler22start_scheduler_simpleNCNCNvNtNtNtCsgoC3FCBgbcl_3lib4unit8services26token_scheduler_edge_casess_31test_scheduler_info_consistency00E00B21_
FNDA:0,_RNCNCINvMNtNtCs8c0sLc0b2ph_15webhook_gateway8services15token_schedulerNtB7_14TokenScheduler22start_scheduler_simpleNCNCNvNtNtNtCsgoC3FCBgbcl_3lib4unit8services26token_scheduler_edge_casess_36test_scheduler_config_extreme_values00E00B21_
FNDA:0,_RNCNCINvMNtNtCs8c0sLc0b2ph_15webhook_gateway8services15token_schedulerNtB7_14TokenScheduler22start_scheduler_simpleNCNCNvNtNtNtCsgoC3FCBgbcl_3lib4unit8services26token_scheduler_edge_casess_51test_scheduler_simple_vs_async_callback_equivalence00E00B21_
FNDA:0,_RNCNCINvMNtNtCs8c0sLc0b2ph_15webhook_gateway8services15token_schedulerNtB7_14TokenScheduler22start_scheduler_simpleNCNCNvNtNtNtCsgoC3FCBgbcl_3lib4unit8services26token_scheduler_edge_casess_51test_scheduler_update_config_during_active_schedule00E00B21_
FNDA:0,_RNCNCINvMNtNtCs8c0sLc0b2ph_15webhook_gateway8services15token_schedulerNtB7_14TokenScheduler22start_scheduler_simpleNCNCNvNtNtNtCsgoC3FCBgbcl_3lib4unit8services30token_scheduler_periodic_testss_32test_periodic_scheduler_shutdown00E00B21_
FNDA:0,_RNCNCINvMNtNtCs8c0sLc0b2ph_15webhook_gateway8services15token_schedulerNtB7_14TokenScheduler22start_scheduler_simpleNCNCNvNtNtNtCsgoC3FCBgbcl_3lib4unit8services30token_scheduler_periodic_testss_34test_periodic_scheduler_start_stop00E00B21_
FNDA:0,_RNCNCINvMNtNtCs8c0sLc0b2ph_15webhook_gateway8services15token_schedulerNtB7_14TokenScheduler22start_scheduler_simpleNCNCNvNtNtNtCsgoC3FCBgbcl_3lib4unit8services30token_scheduler_periodic_testss_35test_periodic_scheduler_replacement00E00B21_
FNDA:0,_RNCNCINvMNtNtCs8c0sLc0b2ph_15webhook_gateway8services15token_schedulerNtB7_14TokenScheduler22start_scheduler_simpleNCNCNvNtNtNtCsgoC3FCBgbcl_3lib4unit8services30token_scheduler_periodic_testss_35test_periodic_scheduler_replacement0s_0E00B21_
FNDA:1,_RNCNCINvMNtNtCs8c0sLc0b2ph_15webhook_gateway8services15token_schedulerNtB7_14TokenScheduler22start_scheduler_simpleNCNCNvNtNtNtCsgoC3FCBgbcl_3lib4unit8services30token_scheduler_periodic_testss_37test_periodic_scheduler_drop_behavior00E00B21_
FNDA:3,_RINvMNtNtCs8c0sLc0b2ph_15webhook_gateway8services15token_schedulerNtB3_14TokenScheduler15start_schedulerNCINvB2_22start_scheduler_simpleNCNCNCNvNtNtCsbBJszbEvitB_10unit_tests8services26token_scheduler_edge_casess_36test_concurrent_scheduler_operations000E0NCNCB1G_00EB2m_
FNDA:1,_RINvMNtNtCs8c0sLc0b2ph_15webhook_gateway8services15token_schedulerNtB3_14TokenScheduler15start_schedulerNCINvB2_22start_scheduler_simpleNCNCNvNtNtCsbBJszbEvitB_10unit_tests8services21token_scheduler_testss_19test_scheduler_stop00E0NCNCB1G_00EB2k_
FNDA:1,_RINvMNtNtCs8c0sLc0b2ph_15webhook_gateway8services15token_schedulerNtB3_14TokenScheduler15start_schedulerNCINvB2_22start_scheduler_simpleNCNCNvNtNtCsbBJszbEvitB_10unit_tests8services21token_scheduler_testss_23test_scheduler_shutdown00E0NCNCB1G_00EB2k_
FNDA:1,_RINvMNtNtCs8c0sLc0b2ph_15webhook_gateway8services15token_schedulerNtB3_14TokenScheduler15start_schedulerNCINvB2_22start_scheduler_simpleNCNCNvNtNtCsbBJszbEvitB_10unit_tests8services21token_scheduler_testss_26test_scheduler_replacement00E0NCNCB1G_00EB2k_
FNDA:1,_RINvMNtNtCs8c0sLc0b2ph_15webhook_gateway8services15token_schedulerNtB3_14TokenScheduler15start_schedulerNCINvB2_22start_scheduler_simpleNCNCNvNtNtCsbBJszbEvitB_10unit_tests8services21token_scheduler_testss_26test_scheduler_replacement0s_0E0NCNCB1G_00EB2k_
FNDA:1,_RINvMNtNtCs8c0sLc0b2ph_15webhook_gateway8services15token_schedulerNtB3_14TokenScheduler15start_schedulerNCINvB2_22start_scheduler_simpleNCNCNvNtNtCsbBJszbEvitB_10unit_tests8services21token_scheduler_testss_32test_scheduler_config_validation00E0NCNCB1G_00EB2k_
FNDA:1,_RINvMNtNtCs8c0sLc0b2ph_15webhook_gateway8services15token_schedulerNtB3_14TokenScheduler15start_schedulerNCINvB2_22start_scheduler_simpleNCNCNvNtNtCsbBJszbEvitB_10unit_tests8services26token_scheduler_edge_casess_31test_scheduler_info_consistency00E0NCNCB1G_00EB2k_
FNDA:1,_RINvMNtNtCs8c0sLc0b2ph_15webhook_gateway8services15token_schedulerNtB3_14TokenScheduler15start_schedulerNCINvB2_22start_scheduler_simpleNCNCNvNtNtCsbBJszbEvitB_10unit_tests8services26token_scheduler_edge_casess_36test_scheduler_config_extreme_values00E0NCNCB1G_00EB2k_
FNDA:1,_RINvMNtNtCs8c0sLc0b2ph_15webhook_gateway8services15token_schedulerNtB3_14TokenScheduler15start_schedulerNCINvB2_22start_scheduler_simpleNCNCNvNtNtCsbBJszbEvitB_10unit_tests8services26token_scheduler_edge_casess_51test_scheduler_simple_vs_async_callback_equivalence00E0NCNCB1G_00EB2k_
FNDA:1,_RINvMNtNtCs8c0sLc0b2ph_15webhook_gateway8services15token_schedulerNtB3_14TokenScheduler15start_schedulerNCINvB2_22start_scheduler_simpleNCNCNvNtNtCsbBJszbEvitB_10unit_tests8services26token_scheduler_edge_casess_51test_scheduler_update_config_during_active_schedule00E0NCNCB1G_00EB2k_
FNDA:1,_RINvMNtNtCs8c0sLc0b2ph_15webhook_gateway8services15token_schedulerNtB3_14TokenScheduler15start_schedulerNCINvB2_22start_scheduler_simpleNCNCNvNtNtCsbBJszbEvitB_10unit_tests8services30token_scheduler_periodic_testss_32test_periodic_scheduler_shutdown00E0NCNCB1G_00EB2k_
FNDA:1,_RINvMNtNtCs8c0sLc0b2ph_15webhook_gateway8services15token_schedulerNtB3_14TokenScheduler15start_schedulerNCINvB2_22start_scheduler_simpleNCNCNvNtNtCsbBJszbEvitB_10unit_tests8services30token_scheduler_periodic_testss_34test_periodic_scheduler_start_stop00E0NCNCB1G_00EB2k_
FNDA:1,_RINvMNtNtCs8c0sLc0b2ph_15webhook_gateway8services15token_schedulerNtB3_14TokenScheduler15start_schedulerNCINvB2_22start_scheduler_simpleNCNCNvNtNtCsbBJszbEvitB_10unit_tests8services30token_scheduler_periodic_testss_35test_periodic_scheduler_replacement00E0NCNCB1G_00EB2k_
FNDA:1,_RINvMNtNtCs8c0sLc0b2ph_15webhook_gateway8services15token_schedulerNtB3_14TokenScheduler15start_schedulerNCINvB2_22start_scheduler_simpleNCNCNvNtNtCsbBJszbEvitB_10unit_tests8services30token_scheduler_periodic_testss_35test_periodic_scheduler_replacement0s_0E0NCNCB1G_00EB2k_
FNDA:1,_RINvMNtNtCs8c0sLc0b2ph_15webhook_gateway8services15token_schedulerNtB3_14TokenScheduler15start_schedulerNCINvB2_22start_scheduler_simpleNCNCNvNtNtCsbBJszbEvitB_10unit_tests8services30token_scheduler_periodic_testss_37test_periodic_scheduler_drop_behavior00E0NCNCB1G_00EB2k_
FNDA:1,_RINvMNtNtCs8c0sLc0b2ph_15webhook_gateway8services15token_schedulerNtB3_14TokenScheduler15start_schedulerNCNCNvNtNtCsbBJszbEvitB_10unit_tests8services26token_scheduler_edge_casess_28test_scheduler_drop_behavior00NCNCB1G_00EB1O_
FNDA:10,_RINvMNtNtCs8c0sLc0b2ph_15webhook_gateway8services15token_schedulerNtB3_14TokenScheduler15start_schedulerNCNCNvNtNtCsbBJszbEvitB_10unit_tests8services26token_scheduler_edge_casess_34test_multiple_rapid_schedule_calls00NCNCB1G_00EB1O_
FNDA:1,_RINvMNtNtCs8c0sLc0b2ph_15webhook_gateway8services15token_schedulerNtB3_14TokenScheduler15start_schedulerNCNCNvNtNtCsbBJszbEvitB_10unit_tests8services26token_scheduler_edge_casess_36test_scheduler_with_minimal_interval00NCNCB1G_00EB1O_
FNDA:1,_RINvMNtNtCs8c0sLc0b2ph_15webhook_gateway8services15token_schedulerNtB3_14TokenScheduler15start_schedulerNCNCNvNtNtCsbBJszbEvitB_10unit_tests8services26token_scheduler_edge_casess_38test_scheduler_callback_error_handling00NCNCB1G_00EB1O_
FNDA:1,_RINvMNtNtCs8c0sLc0b2ph_15webhook_gateway8services15token_schedulerNtB3_14TokenScheduler15start_schedulerNCNCNvNtNtCsbBJszbEvitB_10unit_tests8services26token_scheduler_edge_casess_51test_scheduler_simple_vs_async_callback_equivalence0s_0NCNCB1G_s_00EB1O_
FNDA:1,_RINvMNtNtCs8c0sLc0b2ph_15webhook_gateway8services15token_schedulerNtB3_14TokenScheduler15start_schedulerNCNCNvNtNtCsbBJszbEvitB_10unit_tests8services30token_scheduler_periodic_debugs_34test_scheduler_immediate_execution00NCNCB1G_00EB1O_
FNDA:1,_RINvMNtNtCs8c0sLc0b2ph_15webhook_gateway8services15token_schedulerNtB3_14TokenScheduler15start_schedulerNCNCNvNtNtCsbBJszbEvitB_10unit_tests8services30token_scheduler_periodic_debugs_34test_scheduler_runs_multiple_times00NCNCB1G_00EB1O_
FNDA:1,_RINvMNtNtCs8c0sLc0b2ph_15webhook_gateway8services15token_schedulerNtB3_14TokenScheduler15start_schedulerNCNCNvNtNtCsbBJszbEvitB_10unit_tests8services30token_scheduler_periodic_testss_38test_periodic_scheduler_async_callback00NCNCB1G_00EB1O_
FNDA:3,_RINvMNtNtCs8c0sLc0b2ph_15webhook_gateway8services15token_schedulerNtB3_14TokenScheduler19spawn_periodic_taskNCINvB2_22start_scheduler_simpleNCNCNCNvNtNtCsbBJszbEvitB_10unit_tests8services26token_scheduler_edge_casess_36test_concurrent_scheduler_operations000E0NCNCB1K_00EB2q_
FNDA:1,_RINvMNtNtCs8c0sLc0b2ph_15webhook_gateway8services15token_schedulerNtB3_14TokenScheduler19spawn_periodic_taskNCINvB2_22start_scheduler_simpleNCNCNvNtNtCsbBJszbEvitB_10unit_tests8services21token_scheduler_testss_19test_scheduler_stop00E0NCNCB1K_00EB2o_
FNDA:1,_RINvMNtNtCs8c0sLc0b2ph_15webhook_gateway8services15token_schedulerNtB3_14TokenScheduler19spawn_periodic_taskNCINvB2_22start_scheduler_simpleNCNCNvNtNtCsbBJszbEvitB_10unit_tests8services21token_scheduler_testss_23test_scheduler_shutdown00E0NCNCB1K_00EB2o_
FNDA:1,_RINvMNtNtCs8c0sLc0b2ph_15webhook_gateway8services15token_schedulerNtB3_14TokenScheduler19spawn_periodic_taskNCINvB2_22start_scheduler_simpleNCNCNvNtNtCsbBJszbEvitB_10unit_tests8services21token_scheduler_testss_26test_scheduler_replacement00E0NCNCB1K_00EB2o_
FNDA:1,_RINvMNtNtCs8c0sLc0b2ph_15webhook_gateway8services15token_schedulerNtB3_14TokenScheduler19spawn_periodic_taskNCINvB2_22start_scheduler_simpleNCNCNvNtNtCsbBJszbEvitB_10unit_tests8services21token_scheduler_testss_26test_scheduler_replacement0s_0E0NCNCB1K_00EB2o_
FNDA:1,_RINvMNtNtCs8c0sLc0b2ph_15webhook_gateway8services15token_schedulerNtB3_14TokenScheduler19spawn_periodic_taskNCINvB2_22start_scheduler_simpleNCNCNvNtNtCsbBJszbEvitB_10unit_tests8services21token_scheduler_testss_32test_scheduler_config_validation00E0NCNCB1K_00EB2o_
FNDA:1,_RINvMNtNtCs8c0sLc0b2ph_15webhook_gateway8services15token_schedulerNtB3_14TokenScheduler19spawn_periodic_taskNCINvB2_22start_scheduler_simpleNCNCNvNtNtCsbBJszbEvitB_10unit_tests8services26token_scheduler_edge_casess_31test_scheduler_info_consistency00E0NCNCB1K_00EB2o_
FNDA:1,_RINvMNtNtCs8c0sLc0b2ph_15webhook_gateway8services15token_schedulerNtB3_14TokenScheduler19spawn_periodic_taskNCINvB2_22start_scheduler_simpleNCNCNvNtNtCsbBJszbEvitB_10unit_tests8services26token_scheduler_edge_casess_36test_scheduler_config_extreme_values00E0NCNCB1K_00EB2o_
FNDA:1,_RINvMNtNtCs8c0sLc0b2ph_15webhook_gateway8services15token_schedulerNtB3_14TokenScheduler19spawn_periodic_taskNCINvB2_22start_scheduler_simpleNCNCNvNtNtCsbBJszbEvitB_10unit_tests8services26token_scheduler_edge_casess_51test_scheduler_simple_vs_async_callback_equivalence00E0NCNCB1K_00EB2o_
FNDA:1,_RINvMNtNtCs8c0sLc0b2ph_15webhook_gateway8services15token_schedulerNtB3_14TokenScheduler19spawn_periodic_taskNCINvB2_22start_scheduler_simpleNCNCNvNtNtCsbBJszbEvitB_10unit_tests8services26token_scheduler_edge_casess_51test_scheduler_update_config_during_active_schedule00E0NCNCB1K_00EB2o_
FNDA:1,_RINvMNtNtCs8c0sLc0b2ph_15webhook_gateway8services15token_schedulerNtB3_14TokenScheduler19spawn_periodic_taskNCINvB2_22start_scheduler_simpleNCNCNvNtNtCsbBJszbEvitB_10unit_tests8services30token_scheduler_periodic_testss_32test_periodic_scheduler_shutdown00E0NCNCB1K_00EB2o_
FNDA:1,_RINvMNtNtCs8c0sLc0b2ph_15webhook_gateway8services15token_schedulerNtB3_14TokenScheduler19spawn_periodic_taskNCINvB2_22start_scheduler_simpleNCNCNvNtNtCsbBJszbEvitB_10unit_tests8services30token_scheduler_periodic_testss_34test_periodic_scheduler_start_stop00E0NCNCB1K_00EB2o_
FNDA:1,_RINvMNtNtCs8c0sLc0b2ph_15webhook_gateway8services15token_schedulerNtB3_14TokenScheduler19spawn_periodic_taskNCINvB2_22start_scheduler_simpleNCNCNvNtNtCsbBJszbEvitB_10unit_tests8services30token_scheduler_periodic_testss_35test_periodic_scheduler_replacement00E0NCNCB1K_00EB2o_
FNDA:1,_RINvMNtNtCs8c0sLc0b2ph_15webhook_gateway8services15token_schedulerNtB3_14TokenScheduler19spawn_periodic_taskNCINvB2_22start_scheduler_simpleNCNCNvNtNtCsbBJszbEvitB_10unit_tests8services30token_scheduler_periodic_testss_35test_periodic_scheduler_replacement0s_0E0NCNCB1K_00EB2o_
FNDA:1,_RINvMNtNtCs8c0sLc0b2ph_15webhook_gateway8services15token_schedulerNtB3_14TokenScheduler19spawn_periodic_taskNCINvB2_22start_scheduler_simpleNCNCNvNtNtCsbBJszbEvitB_10unit_tests8services30token_scheduler_periodic_testss_37test_periodic_scheduler_drop_behavior00E0NCNCB1K_00EB2o_
FNDA:1,_RINvMNtNtCs8c0sLc0b2ph_15webhook_gateway8services15token_schedulerNtB3_14TokenScheduler19spawn_periodic_taskNCNCNvNtNtCsbBJszbEvitB_10unit_tests8services26token_scheduler_edge_casess_28test_scheduler_drop_behavior00NCNCB1K_00EB1S_
FNDA:10,_RINvMNtNtCs8c0sLc0b2ph_15webhook_gateway8services15token_schedulerNtB3_14TokenScheduler19spawn_periodic_taskNCNCNvNtNtCsbBJszbEvitB_10unit_tests8services26token_scheduler_edge_casess_34test_multiple_rapid_schedule_calls00NCNCB1K_00EB1S_
FNDA:1,_RINvMNtNtCs8c0sLc0b2ph_15webhook_gateway8services15token_schedulerNtB3_14TokenScheduler19spawn_periodic_taskNCNCNvNtNtCsbBJszbEvitB_10unit_tests8services26token_scheduler_edge_casess_36test_scheduler_with_minimal_interval00NCNCB1K_00EB1S_
FNDA:1,_RINvMNtNtCs8c0sLc0b2ph_15webhook_gateway8services15token_schedulerNtB3_14TokenScheduler19spawn_periodic_taskNCNCNvNtNtCsbBJszbEvitB_10unit_tests8services26token_scheduler_edge_casess_38test_scheduler_callback_error_handling00NCNCB1K_00EB1S_
FNDA:1,_RINvMNtNtCs8c0sLc0b2ph_15webhook_gateway8services15token_schedulerNtB3_14TokenScheduler19spawn_periodic_taskNCNCNvNtNtCsbBJszbEvitB_10unit_tests8services26token_scheduler_edge_casess_51test_scheduler_simple_vs_async_callback_equivalence0s_0NCNCB1K_s_00EB1S_
FNDA:1,_RINvMNtNtCs8c0sLc0b2ph_15webhook_gateway8services15token_schedulerNtB3_14TokenScheduler19spawn_periodic_taskNCNCNvNtNtCsbBJszbEvitB_10unit_tests8services30token_scheduler_periodic_debugs_34test_scheduler_immediate_execution00NCNCB1K_00EB1S_
FNDA:1,_RINvMNtNtCs8c0sLc0b2ph_15webhook_gateway8services15token_schedulerNtB3_14TokenScheduler19spawn_periodic_taskNCNCNvNtNtCsbBJszbEvitB_10unit_tests8services30token_scheduler_periodic_debugs_34test_scheduler_runs_multiple_times00NCNCB1K_00EB1S_
FNDA:1,_RINvMNtNtCs8c0sLc0b2ph_15webhook_gateway8services15token_schedulerNtB3_14TokenScheduler19spawn_periodic_taskNCNCNvNtNtCsbBJszbEvitB_10unit_tests8services30token_scheduler_periodic_testss_38test_periodic_scheduler_async_callback00NCNCB1K_00EB1S_
FNDA:3,_RINvMNtNtCs8c0sLc0b2ph_15webhook_gateway8services15token_schedulerNtB3_14TokenScheduler22start_scheduler_simpleNCNCNCNvNtNtCsbBJszbEvitB_10unit_tests8services26token_scheduler_edge_casess_36test_concurrent_scheduler_operations000EB1X_
FNDA:1,_RINvMNtNtCs8c0sLc0b2ph_15webhook_gateway8services15token_schedulerNtB3_14TokenScheduler22start_scheduler_simpleNCNCNvNtNtCsbBJszbEvitB_10unit_tests8services21token_scheduler_testss_19test_scheduler_stop00EB1V_
FNDA:1,_RINvMNtNtCs8c0sLc0b2ph_15webhook_gateway8services15token_schedulerNtB3_14TokenScheduler22start_scheduler_simpleNCNCNvNtNtCsbBJszbEvitB_10unit_tests8services21token_scheduler_testss_23test_scheduler_shutdown00EB1V_
FNDA:1,_RINvMNtNtCs8c0sLc0b2ph_15webhook_gateway8services15token_schedulerNtB3_14TokenScheduler22start_scheduler_simpleNCNCNvNtNtCsbBJszbEvitB_10unit_tests8services21token_scheduler_testss_26test_scheduler_replacement00EB1V_
FNDA:1,_RINvMNtNtCs8c0sLc0b2ph_15webhook_gateway8services15token_schedulerNtB3_14TokenScheduler22start_scheduler_simpleNCNCNvNtNtCsbBJszbEvitB_10unit_tests8services21token_scheduler_testss_26test_scheduler_replacement0s_0EB1V_
FNDA:1,_RINvMNtNtCs8c0sLc0b2ph_15webhook_gateway8services15token_schedulerNtB3_14TokenScheduler22start_scheduler_simpleNCNCNvNtNtCsbBJszbEvitB_10unit_tests8services21token_scheduler_testss_32test_scheduler_config_validation00EB1V_
FNDA:1,_RINvMNtNtCs8c0sLc0b2ph_15webhook_gateway8services15token_schedulerNtB3_14TokenScheduler22start_scheduler_simpleNCNCNvNtNtCsbBJszbEvitB_10unit_tests8services26token_scheduler_edge_casess_31test_scheduler_info_consistency00EB1V_
FNDA:1,_RINvMNtNtCs8c0sLc0b2ph_15webhook_gateway8services15token_schedulerNtB3_14TokenScheduler22start_scheduler_simpleNCNCNvNtNtCsbBJszbEvitB_10unit_tests8services26token_scheduler_edge_casess_36test_scheduler_config_extreme_values00EB1V_
FNDA:1,_RINvMNtNtCs8c0sLc0b2ph_15webhook_gateway8services15token_schedulerNtB3_14TokenScheduler22start_scheduler_simpleNCNCNvNtNtCsbBJszbEvitB_10unit_tests8services26token_scheduler_edge_casess_51test_scheduler_simple_vs_async_callback_equivalence00EB1V_
FNDA:1,_RINvMNtNtCs8c0sLc0b2ph_15webhook_gateway8services15token_schedulerNtB3_14TokenScheduler22start_scheduler_simpleNCNCNvNtNtCsbBJszbEvitB_10unit_tests8services26token_scheduler_edge_casess_51test_scheduler_update_config_during_active_schedule00EB1V_
FNDA:1,_RINvMNtNtCs8c0sLc0b2ph_15webhook_gateway8services15token_schedulerNtB3_14TokenScheduler22start_scheduler_simpleNCNCNvNtNtCsbBJszbEvitB_10unit_tests8services30token_scheduler_periodic_testss_32test_periodic_scheduler_shutdown00EB1V_
FNDA:1,_RINvMNtNtCs8c0sLc0b2ph_15webhook_gateway8services15token_schedulerNtB3_14TokenScheduler22start_scheduler_simpleNCNCNvNtNtCsbBJszbEvitB_10unit_tests8services30token_scheduler_periodic_testss_34test_periodic_scheduler_start_stop00EB1V_
FNDA:1,_RINvMNtNtCs8c0sLc0b2ph_15webhook_gateway8services15token_schedulerNtB3_14TokenScheduler22start_scheduler_simpleNCNCNvNtNtCsbBJszbEvitB_10unit_tests8services30token_scheduler_periodic_testss_35test_periodic_scheduler_replacement00EB1V_
FNDA:1,_RINvMNtNtCs8c0sLc0b2ph_15webhook_gateway8services15token_schedulerNtB3_14TokenScheduler22start_scheduler_simpleNCNCNvNtNtCsbBJszbEvitB_10unit_tests8services30token_scheduler_periodic_testss_35test_periodic_scheduler_replacement0s_0EB1V_
FNDA:1,_RINvMNtNtCs8c0sLc0b2ph_15webhook_gateway8services15token_schedulerNtB3_14TokenScheduler22start_scheduler_simpleNCNCNvNtNtCsbBJszbEvitB_10unit_tests8services30token_scheduler_periodic_testss_37test_periodic_scheduler_drop_behavior00EB1V_
FNDA:1,_RNCINvMNtNtCs8c0sLc0b2ph_15webhook_gateway8services15token_schedulerNtB5_14TokenScheduler19spawn_periodic_taskNCINvB4_22start_scheduler_simpleNCNCNCNvNtNtCsbBJszbEvitB_10unit_tests8services26token_scheduler_edge_casess_36test_concurrent_scheduler_operations000E0NCNCB1M_00E0B2s_
FNDA:0,_RNCINvMNtNtCs8c0sLc0b2ph_15webhook_gateway8services15token_schedulerNtB5_14TokenScheduler19spawn_periodic_taskNCINvB4_22start_scheduler_simpleNCNCNvNtNtCsbBJszbEvitB_10unit_tests8services21token_scheduler_testss_19test_scheduler_stop00E0NCNCB1M_00E0B2q_
FNDA:0,_RNCINvMNtNtCs8c0sLc0b2ph_15webhook_gateway8services15token_schedulerNtB5_14TokenScheduler19spawn_periodic_taskNCINvB4_22start_scheduler_simpleNCNCNvNtNtCsbBJszbEvitB_10unit_tests8services21token_scheduler_testss_23test_scheduler_shutdown00E0NCNCB1M_00E0B2q_
FNDA:0,_RNCINvMNtNtCs8c0sLc0b2ph_15webhook_gateway8services15token_schedulerNtB5_14TokenScheduler19spawn_periodic_taskNCINvB4_22start_scheduler_simpleNCNCNvNtNtCsbBJszbEvitB_10unit_tests8services21token_scheduler_testss_26test_scheduler_replacement00E0NCNCB1M_00E0B2q_
FNDA:0,_RNCINvMNtNtCs8c0sLc0b2ph_15webhook_gateway8services15token_schedulerNtB5_14TokenScheduler19spawn_periodic_taskNCINvB4_22start_scheduler_simpleNCNCNvNtNtCsbBJszbEvitB_10unit_tests8services21token_scheduler_testss_26test_scheduler_replacement0s_0E0NCNCB1M_00E0B2q_
FNDA:0,_RNCINvMNtNtCs8c0sLc0b2ph_15webhook_gateway8services15token_schedulerNtB5_14TokenScheduler19spawn_periodic_taskNCINvB4_22start_scheduler_simpleNCNCNvNtNtCsbBJszbEvitB_10unit_tests8services21token_scheduler_testss_32test_scheduler_config_validation00E0NCNCB1M_00E0B2q_
FNDA:0,_RNCINvMNtNtCs8c0sLc0b2ph_15webhook_gateway8services15token_schedulerNtB5_14TokenScheduler19spawn_periodic_taskNCINvB4_22start_scheduler_simpleNCNCNvNtNtCsbBJszbEvitB_10unit_tests8services26token_scheduler_edge_casess_31test_scheduler_info_consistency00E0NCNCB1M_00E0B2q_
FNDA:0,_RNCINvMNtNtCs8c0sLc0b2ph_15webhook_gateway8services15token_schedulerNtB5_14TokenScheduler19spawn_periodic_taskNCINvB4_22start_scheduler_simpleNCNCNvNtNtCsbBJszbEvitB_10unit_tests8services26token_scheduler_edge_casess_36test_scheduler_config_extreme_values00E0NCNCB1M_00E0B2q_
FNDA:0,_RNCINvMNtNtCs8c0sLc0b2ph_15webhook_gateway8services15token_schedulerNtB5_14TokenScheduler19spawn_periodic_taskNCINvB4_22start_scheduler_simpleNCNCNvNtNtCsbBJszbEvitB_10unit_tests8services26token_scheduler_edge_casess_51test_scheduler_simple_vs_async_callback_equivalence00E0NCNCB1M_00E0B2q_
FNDA:0,_RNCINvMNtNtCs8c0sLc0b2ph_15webhook_gateway8services15token_schedulerNtB5_14TokenScheduler19spawn_periodic_taskNCINvB4_22start_scheduler_simpleNCNCNvNtNtCsbBJszbEvitB_10unit_tests8services26token_scheduler_edge_casess_51test_scheduler_update_config_during_active_schedule00E0NCNCB1M_00E0B2q_
FNDA:0,_RNCINvMNtNtCs8c0sLc0b2ph_15webhook_gateway8services15token_schedulerNtB5_14TokenScheduler19spawn_periodic_taskNCINvB4_22start_scheduler_simpleNCNCNvNtNtCsbBJszbEvitB_10unit_tests8services30token_scheduler_periodic_testss_32test_periodic_scheduler_shutdown00E0NCNCB1M_00E0B2q_
FNDA:0,_RNCINvMNtNtCs8c0sLc0b2ph_15webhook_gateway8services15token_schedulerNtB5_14TokenScheduler19spawn_periodic_taskNCINvB4_22start_scheduler_simpleNCNCNvNtNtCsbBJszbEvitB_10unit_tests8services30token_scheduler_periodic_testss_34test_periodic_scheduler_start_stop00E0NCNCB1M_00E0B2q_
FNDA:0,_RNCINvMNtNtCs8c0sLc0b2ph_15webhook_gateway8services15token_schedulerNtB5_14TokenScheduler19spawn_periodic_taskNCINvB4_22start_scheduler_simpleNCNCNvNtNtCsbBJszbEvitB_10unit_tests8services30token_scheduler_periodic_testss_35test_periodic_scheduler_replacement00E0NCNCB1M_00E0B2q_
FNDA:0,_RNCINvMNtNtCs8c0sLc0b2ph_15webhook_gateway8services15token_schedulerNtB5_14TokenScheduler19spawn_periodic_taskNCINvB4_22start_scheduler_simpleNCNCNvNtNtCsbBJszbEvitB_10unit_tests8services30token_scheduler_periodic_testss_35test_periodic_scheduler_replacement0s_0E0NCNCB1M_00E0B2q_
FNDA:1,_RNCINvMNtNtCs8c0sLc0b2ph_15webhook_gateway8services15token_schedulerNtB5_14TokenScheduler19spawn_periodic_taskNCINvB4_22start_scheduler_simpleNCNCNvNtNtCsbBJszbEvitB_10unit_tests8services30token_scheduler_periodic_testss_37test_periodic_scheduler_drop_behavior00E0NCNCB1M_00E0B2q_
FNDA:1,_RNCINvMNtNtCs8c0sLc0b2ph_15webhook_gateway8services15token_schedulerNtB5_14TokenScheduler19spawn_periodic_taskNCNCNvNtNtCsbBJszbEvitB_10unit_tests8services26token_scheduler_edge_casess_28test_scheduler_drop_behavior00NCNCB1M_00E0B1U_
FNDA:0,_RNCINvMNtNtCs8c0sLc0b2ph_15webhook_gateway8services15token_schedulerNtB5_14TokenScheduler19spawn_periodic_taskNCNCNvNtNtCsbBJszbEvitB_10unit_tests8services26token_scheduler_edge_casess_34test_multiple_rapid_schedule_calls00NCNCB1M_00E0B1U_
FNDA:0,_RNCINvMNtNtCs8c0sLc0b2ph_15webhook_gateway8services15token_schedulerNtB5_14TokenScheduler19spawn_periodic_taskNCNCNvNtNtCsbBJszbEvitB_10unit_tests8services26token_scheduler_edge_casess_36test_scheduler_with_minimal_interval00NCNCB1M_00E0B1U_
FNDA:1,_RNCINvMNtNtCs8c0sLc0b2ph_15webhook_gateway8services15token_schedulerNtB5_14TokenScheduler19spawn_periodic_taskNCNCNvNtNtCsbBJszbEvitB_10unit_tests8services26token_scheduler_edge_casess_38test_scheduler_callback_error_handling00NCNCB1M_00E0B1U_
FNDA:0,_RNCINvMNtNtCs8c0sLc0b2ph_15webhook_gateway8services15token_schedulerNtB5_14TokenScheduler19spawn_periodic_taskNCNCNvNtNtCsbBJszbEvitB_10unit_tests8services26token_scheduler_edge_casess_51test_scheduler_simple_vs_async_callback_equivalence0s_0NCNCB1M_s_00E0B1U_
FNDA:1,_RNCINvMNtNtCs8c0sLc0b2ph_15webhook_gateway8services15token_schedulerNtB5_14TokenScheduler19spawn_periodic_taskNCNCNvNtNtCsbBJszbEvitB_10unit_tests8services30token_scheduler_periodic_debugs_34test_scheduler_immediate_execution00NCNCB1M_00E0B1U_
FNDA:1,_RNCINvMNtNtCs8c0sLc0b2ph_15webhook_gateway8services15token_schedulerNtB5_14TokenScheduler19spawn_periodic_taskNCNCNvNtNtCsbBJszbEvitB_10unit_tests8services30token_scheduler_periodic_debugs_34test_scheduler_runs_multiple_times00NCNCB1M_00E0B1U_
FNDA:0,_RNCINvMNtNtCs8c0sLc0b2ph_15webhook_gateway8services15token_schedulerNtB5_14TokenScheduler19spawn_periodic_taskNCNCNvNtNtCsbBJszbEvitB_10unit_tests8services30token_scheduler_periodic_testss_38test_periodic_scheduler_async_callback00NCNCB1M_00E0B1U_
FNDA:0,_RNCINvMNtNtCs8c0sLc0b2ph_15webhook_gateway8services15token_schedulerNtB5_14TokenScheduler22start_scheduler_simpleNCNCNCNvNtNtCsbBJszbEvitB_10unit_tests8services26token_scheduler_edge_casess_36test_concurrent_scheduler_operations000E0B1Z_
FNDA:0,_RNCINvMNtNtCs8c0sLc0b2ph_15webhook_gateway8services15token_schedulerNtB5_14TokenScheduler22start_scheduler_simpleNCNCNvNtNtCsbBJszbEvitB_10unit_tests8services21token_scheduler_testss_19test_scheduler_stop00E0B1X_
FNDA:0,_RNCINvMNtNtCs8c0sLc0b2ph_15webhook_gateway8services15token_schedulerNtB5_14TokenScheduler22start_scheduler_simpleNCNCNvNtNtCsbBJszbEvitB_10unit_tests8services21token_scheduler_testss_23test_scheduler_shutdown00E0B1X_
FNDA:0,_RNCINvMNtNtCs8c0sLc0b2ph_15webhook_gateway8services15token_schedulerNtB5_14TokenScheduler22start_scheduler_simpleNCNCNvNtNtCsbBJszbEvitB_10unit_tests8services21token_scheduler_testss_26test_scheduler_replacement00E0B1X_
FNDA:0,_RNCINvMNtNtCs8c0sLc0b2ph_15webhook_gateway8services15token_schedulerNtB5_14TokenScheduler22start_scheduler_simpleNCNCNvNtNtCsbBJszbEvitB_10unit_tests8services21token_scheduler_testss_26test_scheduler_replacement0s_0E0B1X_
FNDA:0,_RNCINvMNtNtCs8c0sLc0b2ph_15webhook_gateway8services15token_schedulerNtB5_14TokenScheduler22start_scheduler_simpleNCNCNvNtNtCsbBJszbEvitB_10unit_tests8services21token_scheduler_testss_32test_scheduler_config_validation00E0B1X_
FNDA:0,_RNCINvMNtNtCs8c0sLc0b2ph_15webhook_gateway8services15token_schedulerNtB5_14TokenScheduler22start_scheduler_simpleNCNCNvNtNtCsbBJszbEvitB_10unit_tests8services26token_scheduler_edge_casess_31test_scheduler_info_consistency00E0B1X_
FNDA:0,_RNCINvMNtNtCs8c0sLc0b2ph_15webhook_gateway8services15token_schedulerNtB5_14TokenScheduler22start_scheduler_simpleNCNCNvNtNtCsbBJszbEvitB_10unit_tests8services26token_scheduler_edge_casess_36test_scheduler_config_extreme_values00E0B1X_
FNDA:0,_RNCINvMNtNtCs8c0sLc0b2ph_15webhook_gateway8services15token_schedulerNtB5_14TokenScheduler22start_scheduler_simpleNCNCNvNtNtCsbBJszbEvitB_10unit_tests8services26token_scheduler_edge_casess_51test_scheduler_simple_vs_async_callback_equivalence00E0B1X_
FNDA:0,_RNCINvMNtNtCs8c0sLc0b2ph_15webhook_gateway8services15token_schedulerNtB5_14TokenScheduler22start_scheduler_simpleNCNCNvNtNtCsbBJszbEvitB_10unit_tests8services26token_scheduler_edge_casess_51test_scheduler_update_config_during_active_schedule00E0B1X_
FNDA:0,_RNCINvMNtNtCs8c0sLc0b2ph_15webhook_gateway8services15token_schedulerNtB5_14TokenScheduler22start_scheduler_simpleNCNCNvNtNtCsbBJszbEvitB_10unit_tests8services30token_scheduler_periodic_testss_32test_periodic_scheduler_shutdown00E0B1X_
FNDA:0,_RNCINvMNtNtCs8c0sLc0b2ph_15webhook_gateway8services15token_schedulerNtB5_14TokenScheduler22start_scheduler_simpleNCNCNvNtNtCsbBJszbEvitB_10unit_tests8services30token_scheduler_periodic_testss_34test_periodic_scheduler_start_stop00E0B1X_
FNDA:0,_RNCINvMNtNtCs8c0sLc0b2ph_15webhook_gateway8services15token_schedulerNtB5_14TokenScheduler22start_scheduler_simpleNCNCNvNtNtCsbBJszbEvitB_10unit_tests8services30token_scheduler_periodic_testss_35test_periodic_scheduler_replacement00E0B1X_
FNDA:0,_RNCINvMNtNtCs8c0sLc0b2ph_15webhook_gateway8services15token_schedulerNtB5_14TokenScheduler22start_scheduler_simpleNCNCNvNtNtCsbBJszbEvitB_10unit_tests8services30token_scheduler_periodic_testss_35test_periodic_scheduler_replacement0s_0E0B1X_
FNDA:1,_RNCINvMNtNtCs8c0sLc0b2ph_15webhook_gateway8services15token_schedulerNtB5_14TokenScheduler22start_scheduler_simpleNCNCNvNtNtCsbBJszbEvitB_10unit_tests8services30token_scheduler_periodic_testss_37test_periodic_scheduler_drop_behavior00E0B1X_
FNDA:0,_RNCNCINvMNtNtCs8c0sLc0b2ph_15webhook_gateway8services15token_schedulerNtB7_14TokenScheduler22start_scheduler_simpleNCNCNCNvNtNtCsbBJszbEvitB_10unit_tests8services26token_scheduler_edge_casess_36test_concurrent_scheduler_operations000E00B21_
FNDA:0,_RNCNCINvMNtNtCs8c0sLc0b2ph_15webhook_gateway8services15token_schedulerNtB7_14TokenScheduler22start_scheduler_simpleNCNCNvNtNtCsbBJszbEvitB_10unit_tests8services21token_scheduler_testss_19test_scheduler_stop00E00B1Z_
FNDA:0,_RNCNCINvMNtNtCs8c0sLc0b2ph_15webhook_gateway8services15token_schedulerNtB7_14TokenScheduler22start_scheduler_simpleNCNCNvNtNtCsbBJszbEvitB_10unit_tests8services21token_scheduler_testss_23test_scheduler_shutdown00E00B1Z_
FNDA:0,_RNCNCINvMNtNtCs8c0sLc0b2ph_15webhook_gateway8services15token_schedulerNtB7_14TokenScheduler22start_scheduler_simpleNCNCNvNtNtCsbBJszbEvitB_10unit_tests8services21token_scheduler_testss_26test_scheduler_replacement00E00B1Z_
FNDA:0,_RNCNCINvMNtNtCs8c0sLc0b2ph_15webhook_gateway8services15token_schedulerNtB7_14TokenScheduler22start_scheduler_simpleNCNCNvNtNtCsbBJszbEvitB_10unit_tests8services21token_scheduler_testss_26test_scheduler_replacement0s_0E00B1Z_
FNDA:0,_RNCNCINvMNtNtCs8c0sLc0b2ph_15webhook_gateway8services15token_schedulerNtB7_14TokenScheduler22start_scheduler_simpleNCNCNvNtNtCsbBJszbEvitB_10unit_tests8services21token_scheduler_testss_32test_scheduler_config_validation00E00B1Z_
FNDA:0,_RNCNCINvMNtNtCs8c0sLc0b2ph_15webhook_gateway8services15token_schedulerNtB7_14TokenScheduler22start_scheduler_simpleNCNCNvNtNtCsbBJszbEvitB_10unit_tests8services26token_scheduler_edge_casess_31test_scheduler_info_consistency00E00B1Z_
FNDA:0,_RNCNCINvMNtNtCs8c0sLc0b2ph_15webhook_gateway8services15token_schedulerNtB7_14TokenScheduler22start_scheduler_simpleNCNCNvNtNtCsbBJszbEvitB_10unit_tests8services26token_scheduler_edge_casess_36test_scheduler_config_extreme_values00E00B1Z_
FNDA:0,_RNCNCINvMNtNtCs8c0sLc0b2ph_15webhook_gateway8services15token_schedulerNtB7_14TokenScheduler22start_scheduler_simpleNCNCNvNtNtCsbBJszbEvitB_10unit_tests8services26token_scheduler_edge_casess_51test_scheduler_simple_vs_async_callback_equivalence00E00B1Z_
FNDA:0,_RNCNCINvMNtNtCs8c0sLc0b2ph_15webhook_gateway8services15token_schedulerNtB7_14TokenScheduler22start_scheduler_simpleNCNCNvNtNtCsbBJszbEvitB_10unit_tests8services26token_scheduler_edge_casess_51test_scheduler_update_config_during_active_schedule00E00B1Z_
FNDA:0,_RNCNCINvMNtNtCs8c0sLc0b2ph_15webhook_gateway8services15token_schedulerNtB7_14TokenScheduler22start_scheduler_simpleNCNCNvNtNtCsbBJszbEvitB_10unit_tests8services30token_scheduler_periodic_testss_32test_periodic_scheduler_shutdown00E00B1Z_
FNDA:0,_RNCNCINvMNtNtCs8c0sLc0b2ph_15webhook_gateway8services15token_schedulerNtB7_14TokenScheduler22start_scheduler_simpleNCNCNvNtNtCsbBJszbEvitB_10unit_tests8services30token_scheduler_periodic_testss_34test_periodic_scheduler_start_stop00E00B1Z_
FNDA:0,_RNCNCINvMNtNtCs8c0sLc0b2ph_15webhook_gateway8services15token_schedulerNtB7_14TokenScheduler22start_scheduler_simpleNCNCNvNtNtCsbBJszbEvitB_10unit_tests8services30token_scheduler_periodic_testss_35test_periodic_scheduler_replacement00E00B1Z_
FNDA:0,_RNCNCINvMNtNtCs8c0sLc0b2ph_15webhook_gateway8services15token_schedulerNtB7_14TokenScheduler22start_scheduler_simpleNCNCNvNtNtCsbBJszbEvitB_10unit_tests8services30token_scheduler_periodic_testss_35test_periodic_scheduler_replacement0s_0E00B1Z_
FNDA:1,_RNCNCINvMNtNtCs8c0sLc0b2ph_15webhook_gateway8services15token_schedulerNtB7_14TokenScheduler22start_scheduler_simpleNCNCNvNtNtCsbBJszbEvitB_10unit_tests8services30token_scheduler_periodic_testss_37test_periodic_scheduler_drop_behavior00E00B1Z_
FNDA:0,_RINvMNtNtCsf025XZeElGg_15webhook_gateway8services15token_schedulerNtB3_14TokenScheduler15start_schedulerppEB7_
FNDA:0,_RINvMNtNtCsf025XZeElGg_15webhook_gateway8services15token_schedulerNtB3_14TokenScheduler19spawn_periodic_taskppEB7_
FNDA:0,_RINvMNtNtCsf025XZeElGg_15webhook_gateway8services15token_schedulerNtB3_14TokenScheduler22start_scheduler_simplepEB7_
FNDA:0,_RNCINvMNtNtCsf025XZeElGg_15webhook_gateway8services15token_schedulerNtB5_14TokenScheduler19spawn_periodic_taskppE0B9_
FNDA:0,_RNCINvMNtNtCsf025XZeElGg_15webhook_gateway8services15token_schedulerNtB5_14TokenScheduler22start_scheduler_simplepE0B9_
FNDA:0,_RNCNCINvMNtNtCsf025XZeElGg_15webhook_gateway8services15token_schedulerNtB7_14TokenScheduler22start_scheduler_simplepE00Bb_
FNDA:0,_RNvMNtNtCsf025XZeElGg_15webhook_gateway8services15token_schedulerNtB2_14TokenScheduler10get_config
FNDA:0,_RNvMNtNtCsf025XZeElGg_15webhook_gateway8services15token_schedulerNtB2_14TokenScheduler11with_config
FNDA:0,_RNvMNtNtCsf025XZeElGg_15webhook_gateway8services15token_schedulerNtB2_14TokenScheduler13update_config
FNDA:0,_RNvMNtNtCsf025XZeElGg_15webhook_gateway8services15token_schedulerNtB2_14TokenScheduler14stop_scheduler
FNDA:0,_RNvMNtNtCsf025XZeElGg_15webhook_gateway8services15token_schedulerNtB2_14TokenScheduler18get_scheduler_info
FNDA:0,_RNvMNtNtCsf025XZeElGg_15webhook_gateway8services15token_schedulerNtB2_14TokenScheduler19is_scheduler_active
FNDA:0,_RNvMNtNtCsf025XZeElGg_15webhook_gateway8services15token_schedulerNtB2_14TokenScheduler3new
FNDA:0,_RNvMNtNtCsf025XZeElGg_15webhook_gateway8services15token_schedulerNtB2_14TokenScheduler8shutdown
FNDA:0,_RNvXs0_NtNtCsf025XZeElGg_15webhook_gateway8services15token_schedulerNtB5_14TokenSchedulerNtNtNtCsixiwFwjEgS7_4core3ops4drop4Drop4drop
FNDA:0,_RNvXs_NtNtCsf025XZeElGg_15webhook_gateway8services15token_schedulerNtB4_14TokenSchedulerNtNtCsixiwFwjEgS7_4core7default7Default7default
FNF:16
FNH:15
DA:21,20
DA:22,20
DA:23,20
DA:24,20
DA:25,20
DA:27,124
DA:28,124
DA:29,124
DA:30,124
DA:31,124
DA:32,124
DA:35,136
DA:36,136
DA:37,136
DA:38,136
DA:41,136
DA:43,136
DA:44,136
DA:47,136
DA:48,136
DA:49,136
DA:50,136
DA:51,136
DA:54,34
DA:55,34
DA:56,34
DA:58,34
DA:59,34
DA:60,2
DA:61,2
DA:62,2
DA:63,2
DA:64,2
DA:65,2
DA:66,34
DA:70,136
DA:71,136
DA:72,136
DA:73,136
DA:75,136
DA:77,136
DA:78,58
DA:79,58
DA:80,58
DA:81,58
DA:82,58
DA:86,58
DA:89,58
DA:92,58
DA:95,56
DA:96,56
DA:97,56
DA:98,56
DA:99,56
DA:103,56
DA:104,21
DA:105,21
DA:106,21
DA:107,21
DA:108,21
DA:109,21
DA:110,21
DA:111,21
DA:112,26
DA:113,26
DA:114,26
DA:115,26
DA:116,26
DA:117,26
DA:118,26
DA:121,47
DA:122,47
DA:123,47
DA:124,47
DA:125,47
DA:129,47
DA:132,136
DA:135,204
DA:136,204
DA:137,204
DA:138,84
DA:139,84
DA:140,84
DA:141,84
DA:142,84
DA:143,84
DA:144,84
DA:145,120
DA:146,204
DA:149,108
DA:150,108
DA:151,108
DA:152,108
DA:155,22
DA:156,22
DA:157,12
DA:158,12
DA:159,12
DA:160,12
DA:162,10
DA:164,22
DA:167,20
DA:168,20
DA:169,20
DA:172,4
DA:173,4
DA:174,4
DA:177,32
DA:178,32
DA:179,32
DA:180,32
DA:181,32
DA:182,32
DA:184,32
DA:185,32
DA:189,0
DA:190,0
DA:191,0
DA:195,240
DA:198,240
BRF:0
BRH:0
LF:122
LH:119
end_of_record
SF:D:\Rust\permata-gateway\src\services\webhook_processor.rs
FN:27,_RNvMNtNtCs8c0sLc0b2ph_15webhook_gateway8services17webhook_processorNtB2_16WebhookProcessor3new
FN:35,_RNvMNtNtCs8c0sLc0b2ph_15webhook_gateway8services17webhook_processorNtB2_16WebhookProcessor8shutdown
FN:48,_RNvXs2_NtNtCs8c0sLc0b2ph_15webhook_gateway8services17webhook_processorNtB5_16WebhookProcessorNtB5_21WebhookProcessorTrait15process_webhook
FN:35,_RNCNvMNtNtCs8c0sLc0b2ph_15webhook_gateway8services17webhook_processorNtB4_16WebhookProcessor8shutdown0B8_
FN:35,_RNCNvMNtNtCs8c0sLc0b2ph_15webhook_gateway8services17webhook_processorNtB4_16WebhookProcessor8shutdown0CsgoC3FCBgbcl_3lib
FN:35,_RNCNvMNtNtCs8c0sLc0b2ph_15webhook_gateway8services17webhook_processorNtB4_16WebhookProcessor8shutdown0CsbBJszbEvitB_10unit_tests
FN:35,_RNCNvMNtNtCsf025XZeElGg_15webhook_gateway8services17webhook_processorNtB4_16WebhookProcessor8shutdown0B8_
FN:27,_RNvMNtNtCsf025XZeElGg_15webhook_gateway8services17webhook_processorNtB2_16WebhookProcessor3new
FN:35,_RNvMNtNtCsf025XZeElGg_15webhook_gateway8services17webhook_processorNtB2_16WebhookProcessor8shutdown
FN:48,_RNvXs2_NtNtCsf025XZeElGg_15webhook_gateway8services17webhook_processorNtB5_16WebhookProcessorNtB5_21WebhookProcessorTrait15process_webhook
FN:35,_RNCNvMNtNtCs8c0sLc0b2ph_15webhook_gateway8services17webhook_processorNtB4_16WebhookProcessor8shutdown0Csfmh2Z66AXDD_15webhook_gateway
FNDA:34,_RNvMNtNtCs8c0sLc0b2ph_15webhook_gateway8services17webhook_processorNtB2_16WebhookProcessor3new
FNDA:2,_RNvMNtNtCs8c0sLc0b2ph_15webhook_gateway8services17webhook_processorNtB2_16WebhookProcessor8shutdown
FNDA:30,_RNvXs2_NtNtCs8c0sLc0b2ph_15webhook_gateway8services17webhook_processorNtB5_16WebhookProcessorNtB5_21WebhookProcessorTrait15process_webhook
FNDA:0,_RNCNvMNtNtCs8c0sLc0b2ph_15webhook_gateway8services17webhook_processorNtB4_16WebhookProcessor8shutdown0B8_
FNDA:1,_RNCNvMNtNtCs8c0sLc0b2ph_15webhook_gateway8services17webhook_processorNtB4_16WebhookProcessor8shutdown0CsgoC3FCBgbcl_3lib
FNDA:1,_RNCNvMNtNtCs8c0sLc0b2ph_15webhook_gateway8services17webhook_processorNtB4_16WebhookProcessor8shutdown0CsbBJszbEvitB_10unit_tests
FNDA:0,_RNCNvMNtNtCsf025XZeElGg_15webhook_gateway8services17webhook_processorNtB4_16WebhookProcessor8shutdown0B8_
FNDA:0,_RNvMNtNtCsf025XZeElGg_15webhook_gateway8services17webhook_processorNtB2_16WebhookProcessor3new
FNDA:0,_RNvMNtNtCsf025XZeElGg_15webhook_gateway8services17webhook_processorNtB2_16WebhookProcessor8shutdown
FNDA:0,_RNvXs2_NtNtCsf025XZeElGg_15webhook_gateway8services17webhook_processorNtB5_16WebhookProcessorNtB5_21WebhookProcessorTrait15process_webhook
FNDA:0,_RNCNvMNtNtCs8c0sLc0b2ph_15webhook_gateway8services17webhook_processorNtB4_16WebhookProcessor8shutdown0Csfmh2Z66AXDD_15webhook_gateway
FNF:4
FNH:4
DA:27,34
DA:28,34
DA:29,34
DA:30,34
DA:31,34
DA:32,34
DA:33,34
DA:35,2
DA:36,2
DA:37,2
DA:38,2
DA:39,2
DA:40,2
DA:42,2
DA:43,2
DA:48,30
DA:98,30
BRF:0
BRH:0
LF:18
LH:18
end_of_record
SF:D:\Rust\permata-gateway\src\utils\error.rs
FN:70,_RINvMNtNtCs8c0sLc0b2ph_15webhook_gateway5utils5errorNtB3_8AppError13configurationReECsddFwJ5hfQPd_17integration_tests
FN:58,_RINvMNtNtCs8c0sLc0b2ph_15webhook_gateway5utils5errorNtB3_8AppError18payload_conversionReECsddFwJ5hfQPd_17integration_tests
FN:64,_RINvMNtNtCs8c0sLc0b2ph_15webhook_gateway5utils5errorNtB3_8AppError12webhook_typepEB7_
FN:52,_RINvMNtNtCs8c0sLc0b2ph_15webhook_gateway5utils5errorNtB3_8AppError18message_processingpEB7_
FN:58,_RINvMNtNtCs8c0sLc0b2ph_15webhook_gateway5utils5errorNtB3_8AppError18payload_conversionpEB7_
FN:70,_RINvMNtNtCs8c0sLc0b2ph_15webhook_gateway5utils5errorNtB3_8AppError13configurationNtNtCs6L9tbza1LrC_5alloc6string6StringEB7_
FN:46,_RINvMNtNtCs8c0sLc0b2ph_15webhook_gateway5utils5errorNtB3_8AppError21authentication_failedNtNtCs6L9tbza1LrC_5alloc6string6StringEB7_
FN:76,_RINvMNtNtCs8c0sLc0b2ph_15webhook_gateway5utils5errorNtB3_8AppError5errorReEB7_
FN:64,_RINvMNtNtCs8c0sLc0b2ph_15webhook_gateway5utils5errorNtB3_8AppError12webhook_typeReECsgoC3FCBgbcl_3lib
FN:70,_RINvMNtNtCs8c0sLc0b2ph_15webhook_gateway5utils5errorNtB3_8AppError13configurationReECsgoC3FCBgbcl_3lib
FN:52,_RINvMNtNtCs8c0sLc0b2ph_15webhook_gateway5utils5errorNtB3_8AppError18message_processingNtNtCs6L9tbza1LrC_5alloc6string6StringECsgoC3FCBgbcl_3lib
FN:52,_RINvMNtNtCs8c0sLc0b2ph_15webhook_gateway5utils5errorNtB3_8AppError18message_processingReECsgoC3FCBgbcl_3lib
FN:58,_RINvMNtNtCs8c0sLc0b2ph_15webhook_gateway5utils5errorNtB3_8AppError18payload_conversionReECsgoC3FCBgbcl_3lib
FN:46,_RINvMNtNtCs8c0sLc0b2ph_15webhook_gateway5utils5errorNtB3_8AppError21authentication_failedReECsgoC3FCBgbcl_3lib
FN:64,_RINvMNtNtCs8c0sLc0b2ph_15webhook_gateway5utils5errorNtB3_8AppError12webhook_typeReECsbBJszbEvitB_10unit_tests
FN:70,_RINvMNtNtCs8c0sLc0b2ph_15webhook_gateway5utils5errorNtB3_8AppError13configurationReECsbBJszbEvitB_10unit_tests
FN:52,_RINvMNtNtCs8c0sLc0b2ph_15webhook_gateway5utils5errorNtB3_8AppError18message_processingNtNtCs6L9tbza1LrC_5alloc6string6StringECsbBJszbEvitB_10unit_tests
FN:52,_RINvMNtNtCs8c0sLc0b2ph_15webhook_gateway5utils5errorNtB3_8AppError18message_processingReECsbBJszbEvitB_10unit_tests
FN:58,_RINvMNtNtCs8c0sLc0b2ph_15webhook_gateway5utils5errorNtB3_8AppError18payload_conversionReECsbBJszbEvitB_10unit_tests
FN:46,_RINvMNtNtCs8c0sLc0b2ph_15webhook_gateway5utils5errorNtB3_8AppError21authentication_failedReECsbBJszbEvitB_10unit_tests
FN:64,_RINvMNtNtCsf025XZeElGg_15webhook_gateway5utils5errorNtB3_8AppError12webhook_typepEB7_
FN:70,_RINvMNtNtCsf025XZeElGg_15webhook_gateway5utils5errorNtB3_8AppError13configurationpEB7_
FN:52,_RINvMNtNtCsf025XZeElGg_15webhook_gateway5utils5errorNtB3_8AppError18message_processingpEB7_
FN:58,_RINvMNtNtCsf025XZeElGg_15webhook_gateway5utils5errorNtB3_8AppError18payload_conversionpEB7_
FN:46,_RINvMNtNtCsf025XZeElGg_15webhook_gateway5utils5errorNtB3_8AppError21authentication_failedpEB7_
FN:76,_RINvMNtNtCsf025XZeElGg_15webhook_gateway5utils5errorNtB3_8AppError5errorpEB7_
FNDA:1,_RINvMNtNtCs8c0sLc0b2ph_15webhook_gateway5utils5errorNtB3_8AppError13configurationReECsddFwJ5hfQPd_17integration_tests
FNDA:1,_RINvMNtNtCs8c0sLc0b2ph_15webhook_gateway5utils5errorNtB3_8AppError18payload_conversionReECsddFwJ5hfQPd_17integration_tests
FNDA:0,_RINvMNtNtCs8c0sLc0b2ph_15webhook_gateway5utils5errorNtB3_8AppError12webhook_typepEB7_
FNDA:0,_RINvMNtNtCs8c0sLc0b2ph_15webhook_gateway5utils5errorNtB3_8AppError18message_processingpEB7_
FNDA:0,_RINvMNtNtCs8c0sLc0b2ph_15webhook_gateway5utils5errorNtB3_8AppError18payload_conversionpEB7_
FNDA:0,_RINvMNtNtCs8c0sLc0b2ph_15webhook_gateway5utils5errorNtB3_8AppError13configurationNtNtCs6L9tbza1LrC_5alloc6string6StringEB7_
FNDA:60,_RINvMNtNtCs8c0sLc0b2ph_15webhook_gateway5utils5errorNtB3_8AppError21authentication_failedNtNtCs6L9tbza1LrC_5alloc6string6StringEB7_
FNDA:10,_RINvMNtNtCs8c0sLc0b2ph_15webhook_gateway5utils5errorNtB3_8AppError5errorReEB7_
FNDA:1,_RINvMNtNtCs8c0sLc0b2ph_15webhook_gateway5utils5errorNtB3_8AppError12webhook_typeReECsgoC3FCBgbcl_3lib
FNDA:2,_RINvMNtNtCs8c0sLc0b2ph_15webhook_gateway5utils5errorNtB3_8AppError13configurationReECsgoC3FCBgbcl_3lib
FNDA:1,_RINvMNtNtCs8c0sLc0b2ph_15webhook_gateway5utils5errorNtB3_8AppError18message_processingNtNtCs6L9tbza1LrC_5alloc6string6StringECsgoC3FCBgbcl_3lib
FNDA:1,_RINvMNtNtCs8c0sLc0b2ph_15webhook_gateway5utils5errorNtB3_8AppError18message_processingReECsgoC3FCBgbcl_3lib
FNDA:2,_RINvMNtNtCs8c0sLc0b2ph_15webhook_gateway5utils5errorNtB3_8AppError18payload_conversionReECsgoC3FCBgbcl_3lib
FNDA:4,_RINvMNtNtCs8c0sLc0b2ph_15webhook_gateway5utils5errorNtB3_8AppError21authentication_failedReECsgoC3FCBgbcl_3lib
FNDA:1,_RINvMNtNtCs8c0sLc0b2ph_15webhook_gateway5utils5errorNtB3_8AppError12webhook_typeReECsbBJszbEvitB_10unit_tests
FNDA:1,_RINvMNtNtCs8c0sLc0b2ph_15webhook_gateway5utils5errorNtB3_8AppError13configurationReECsbBJszbEvitB_10unit_tests
FNDA:1,_RINvMNtNtCs8c0sLc0b2ph_15webhook_gateway5utils5errorNtB3_8AppError18message_processingNtNtCs6L9tbza1LrC_5alloc6string6StringECsbBJszbEvitB_10unit_tests
FNDA:1,_RINvMNtNtCs8c0sLc0b2ph_15webhook_gateway5utils5errorNtB3_8AppError18message_processingReECsbBJszbEvitB_10unit_tests
FNDA:1,_RINvMNtNtCs8c0sLc0b2ph_15webhook_gateway5utils5errorNtB3_8AppError18payload_conversionReECsbBJszbEvitB_10unit_tests
FNDA:4,_RINvMNtNtCs8c0sLc0b2ph_15webhook_gateway5utils5errorNtB3_8AppError21authentication_failedReECsbBJszbEvitB_10unit_tests
FNDA:0,_RINvMNtNtCsf025XZeElGg_15webhook_gateway5utils5errorNtB3_8AppError12webhook_typepEB7_
FNDA:0,_RINvMNtNtCsf025XZeElGg_15webhook_gateway5utils5errorNtB3_8AppError13configurationpEB7_
FNDA:0,_RINvMNtNtCsf025XZeElGg_15webhook_gateway5utils5errorNtB3_8AppError18message_processingpEB7_
FNDA:0,_RINvMNtNtCsf025XZeElGg_15webhook_gateway5utils5errorNtB3_8AppError18payload_conversionpEB7_
FNDA:0,_RINvMNtNtCsf025XZeElGg_15webhook_gateway5utils5errorNtB3_8AppError21authentication_failedpEB7_
FNDA:0,_RINvMNtNtCsf025XZeElGg_15webhook_gateway5utils5errorNtB3_8AppError5errorpEB7_
FNF:6
FNH:6
DA:46,68
DA:47,68
DA:48,68
DA:49,68
DA:50,68
DA:52,4
DA:53,4
DA:54,4
DA:55,4
DA:56,4
DA:58,4
DA:59,4
DA:60,4
DA:61,4
DA:62,4
DA:64,2
DA:65,2
DA:66,2
DA:67,2
DA:68,2
DA:70,4
DA:71,4
DA:72,4
DA:73,4
DA:74,4
DA:76,10
DA:77,10
DA:78,10
DA:79,10
DA:80,10
BRF:0
BRH:0
LF:30
LH:30
end_of_record
SF:D:\Rust\permata-gateway\src\utils\json.rs
FN:5,_RNvNtNtCs8c0sLc0b2ph_15webhook_gateway5utils4json12compact_json
FN:62,_RNvNtNtCs8c0sLc0b2ph_15webhook_gateway5utils4json13is_dr_payload
FN:19,_RNvNtNtCs8c0sLc0b2ph_15webhook_gateway5utils4json16json_path_equals
FN:13,_RNvNtNtCs8c0sLc0b2ph_15webhook_gateway5utils4json16json_path_exists
FN:28,_RNvNtNtCs8c0sLc0b2ph_15webhook_gateway5utils4json18navigate_json_path
FN:75,_RNvNtNtCs8c0sLc0b2ph_15webhook_gateway5utils4json23is_inbound_flow_payload
FN:22,_RNCNvNtNtCs8c0sLc0b2ph_15webhook_gateway5utils4json16json_path_equals0B7_
FN:22,_RNCNvNtNtCsf025XZeElGg_15webhook_gateway5utils4json16json_path_equals0B7_
FN:5,_RNvNtNtCsf025XZeElGg_15webhook_gateway5utils4json12compact_json
FN:62,_RNvNtNtCsf025XZeElGg_15webhook_gateway5utils4json13is_dr_payload
FN:19,_RNvNtNtCsf025XZeElGg_15webhook_gateway5utils4json16json_path_equals
FN:13,_RNvNtNtCsf025XZeElGg_15webhook_gateway5utils4json16json_path_exists
FN:28,_RNvNtNtCsf025XZeElGg_15webhook_gateway5utils4json18navigate_json_path
FN:75,_RNvNtNtCsf025XZeElGg_15webhook_gateway5utils4json23is_inbound_flow_payload
FNDA:24,_RNvNtNtCs8c0sLc0b2ph_15webhook_gateway5utils4json12compact_json
FNDA:12,_RNvNtNtCs8c0sLc0b2ph_15webhook_gateway5utils4json13is_dr_payload
FNDA:18,_RNvNtNtCs8c0sLc0b2ph_15webhook_gateway5utils4json16json_path_equals
FNDA:22,_RNvNtNtCs8c0sLc0b2ph_15webhook_gateway5utils4json16json_path_exists
FNDA:312,_RNvNtNtCs8c0sLc0b2ph_15webhook_gateway5utils4json18navigate_json_path
FNDA:10,_RNvNtNtCs8c0sLc0b2ph_15webhook_gateway5utils4json23is_inbound_flow_payload
FNDA:14,_RNCNvNtNtCs8c0sLc0b2ph_15webhook_gateway5utils4json16json_path_equals0B7_
FNDA:0,_RNCNvNtNtCsf025XZeElGg_15webhook_gateway5utils4json16json_path_equals0B7_
FNDA:0,_RNvNtNtCsf025XZeElGg_15webhook_gateway5utils4json12compact_json
FNDA:0,_RNvNtNtCsf025XZeElGg_15webhook_gateway5utils4json13is_dr_payload
FNDA:0,_RNvNtNtCsf025XZeElGg_15webhook_gateway5utils4json16json_path_equals
FNDA:0,_RNvNtNtCsf025XZeElGg_15webhook_gateway5utils4json16json_path_exists
FNDA:0,_RNvNtNtCsf025XZeElGg_15webhook_gateway5utils4json18navigate_json_path
FNDA:0,_RNvNtNtCsf025XZeElGg_15webhook_gateway5utils4json23is_inbound_flow_payload
FNF:7
FNH:7
DA:5,24
DA:6,24
DA:7,16
DA:8,16
DA:9,24
DA:13,22
DA:14,22
DA:15,22
DA:19,18
DA:20,18
DA:21,18
DA:22,18
DA:23,18
DA:28,312
DA:29,312
DA:30,50
DA:31,262
DA:33,262
DA:34,262
DA:36,262
DA:37,262
DA:39,80
DA:40,80
DA:41,168
DA:42,88
DA:43,88
DA:44,0
DA:45,80
DA:47,182
DA:49,182
DA:50,168
DA:52,14
DA:56,312
DA:62,12
DA:64,12
DA:65,4
DA:66,8
DA:69,8
DA:70,12
DA:75,10
DA:77,10
DA:78,10
DA:79,10
DA:80,10
DA:82,10
BRF:0
BRH:0
LF:46
LH:45
end_of_record
SF:D:\Rust\permata-gateway\src\utils\request_id.rs
FN:7,_RNCNvNtNtCs8c0sLc0b2ph_15webhook_gateway5utils10request_id18extract_request_id0B7_
FN:13,_RNCNvNtNtCs8c0sLc0b2ph_15webhook_gateway5utils10request_id18extract_request_ids_0B7_
FN:3,_RNvNtNtCs8c0sLc0b2ph_15webhook_gateway5utils10request_id18extract_request_id
FN:7,_RNCNvNtNtCsf025XZeElGg_15webhook_gateway5utils10request_id18extract_request_id0B7_
FN:13,_RNCNvNtNtCsf025XZeElGg_15webhook_gateway5utils10request_id18extract_request_ids_0B7_
FN:3,_RNvNtNtCsf025XZeElGg_15webhook_gateway5utils10request_id18extract_request_id
FNDA:28,_RNCNvNtNtCs8c0sLc0b2ph_15webhook_gateway5utils10request_id18extract_request_id0B7_
FNDA:12,_RNCNvNtNtCs8c0sLc0b2ph_15webhook_gateway5utils10request_id18extract_request_ids_0B7_
FNDA:48,_RNvNtNtCs8c0sLc0b2ph_15webhook_gateway5utils10request_id18extract_request_id
FNDA:0,_RNCNvNtNtCsf025XZeElGg_15webhook_gateway5utils10request_id18extract_request_id0B7_
FNDA:0,_RNCNvNtNtCsf025XZeElGg_15webhook_gateway5utils10request_id18extract_request_ids_0B7_
FNDA:0,_RNvNtNtCsf025XZeElGg_15webhook_gateway5utils10request_id18extract_request_id
FNF:3
FNH:3
DA:3,48
DA:4,48
DA:5,44
DA:7,44
DA:8,26
DA:9,22
DA:10,4
DA:11,18
DA:13,22
DA:14,8
DA:15,6
DA:16,2
DA:17,14
DA:20,16
DA:24,4
DA:27,48
BRF:0
BRH:0
LF:18
LH:18
end_of_record
SF:D:\Rust\permata-gateway\src\utils\signature.rs
FN:9,_RNvNtNtCs8c0sLc0b2ph_15webhook_gateway5utils9signature18generate_signature
FN:9,_RNvNtNtCsf025XZeElGg_15webhook_gateway5utils9signature18generate_signature
FNDA:420,_RNvNtNtCs8c0sLc0b2ph_15webhook_gateway5utils9signature18generate_signature
FNDA:0,_RNvNtNtCsf025XZeElGg_15webhook_gateway5utils9signature18generate_signature
FNF:1
FNH:1
DA:9,420
DA:10,420
DA:12,420
DA:13,420
DA:15,420
DA:16,420
DA:18,420
DA:19,420
BRF:0
BRH:0
LF:8
LH:8
end_of_record